
0803_test01.elf:     file format elf32-avr

Sections:
Idx Name          Size      VMA       LMA       File off  Algn
  0 .data         00000010  00800100  00000e14  00000ea8  2**0
                  CONTENTS, ALLOC, LOAD, DATA
  1 .text         00000e14  00000000  00000000  00000094  2**1
                  CONTENTS, ALLOC, LOAD, READONLY, CODE
  2 .bss          00000026  00800110  00800110  00000eb8  2**0
                  ALLOC
  3 .comment      00000030  00000000  00000000  00000eb8  2**0
                  CONTENTS, READONLY
  4 .note.gnu.avr.deviceinfo 00000040  00000000  00000000  00000ee8  2**2
                  CONTENTS, READONLY
  5 .debug_aranges 00000068  00000000  00000000  00000f28  2**0
                  CONTENTS, READONLY, DEBUGGING
  6 .debug_info   00000b89  00000000  00000000  00000f90  2**0
                  CONTENTS, READONLY, DEBUGGING
  7 .debug_abbrev 00000876  00000000  00000000  00001b19  2**0
                  CONTENTS, READONLY, DEBUGGING
  8 .debug_line   00000531  00000000  00000000  0000238f  2**0
                  CONTENTS, READONLY, DEBUGGING
  9 .debug_frame  00000340  00000000  00000000  000028c0  2**2
                  CONTENTS, READONLY, DEBUGGING
 10 .debug_str    00000493  00000000  00000000  00002c00  2**0
                  CONTENTS, READONLY, DEBUGGING
 11 .debug_loc    00000794  00000000  00000000  00003093  2**0
                  CONTENTS, READONLY, DEBUGGING
 12 .debug_ranges 00000058  00000000  00000000  00003827  2**0
                  CONTENTS, READONLY, DEBUGGING

Disassembly of section .text:

00000000 <__vectors>:
   0:	45 c0       	rjmp	.+138    	; 0x8c <__ctors_end>
   2:	00 00       	nop
   4:	28 c2       	rjmp	.+1104   	; 0x456 <__vector_1>
   6:	00 00       	nop
   8:	5a c2       	rjmp	.+1204   	; 0x4be <__vector_2>
   a:	00 00       	nop
   c:	8c c2       	rjmp	.+1304   	; 0x526 <__vector_3>
   e:	00 00       	nop
  10:	be c2       	rjmp	.+1404   	; 0x58e <__vector_4>
  12:	00 00       	nop
  14:	58 c0       	rjmp	.+176    	; 0xc6 <__bad_interrupt>
  16:	00 00       	nop
  18:	56 c0       	rjmp	.+172    	; 0xc6 <__bad_interrupt>
  1a:	00 00       	nop
  1c:	54 c0       	rjmp	.+168    	; 0xc6 <__bad_interrupt>
  1e:	00 00       	nop
  20:	52 c0       	rjmp	.+164    	; 0xc6 <__bad_interrupt>
  22:	00 00       	nop
  24:	50 c0       	rjmp	.+160    	; 0xc6 <__bad_interrupt>
  26:	00 00       	nop
  28:	e6 c2       	rjmp	.+1484   	; 0x5f6 <__vector_10>
  2a:	00 00       	nop
  2c:	4c c0       	rjmp	.+152    	; 0xc6 <__bad_interrupt>
  2e:	00 00       	nop
  30:	4a c0       	rjmp	.+148    	; 0xc6 <__bad_interrupt>
  32:	00 00       	nop
  34:	48 c0       	rjmp	.+144    	; 0xc6 <__bad_interrupt>
  36:	00 00       	nop
  38:	46 c0       	rjmp	.+140    	; 0xc6 <__bad_interrupt>
  3a:	00 00       	nop
  3c:	44 c0       	rjmp	.+136    	; 0xc6 <__bad_interrupt>
  3e:	00 00       	nop
  40:	42 c0       	rjmp	.+132    	; 0xc6 <__bad_interrupt>
  42:	00 00       	nop
  44:	40 c0       	rjmp	.+128    	; 0xc6 <__bad_interrupt>
  46:	00 00       	nop
  48:	3e c0       	rjmp	.+124    	; 0xc6 <__bad_interrupt>
  4a:	00 00       	nop
  4c:	3c c0       	rjmp	.+120    	; 0xc6 <__bad_interrupt>
  4e:	00 00       	nop
  50:	3a c0       	rjmp	.+116    	; 0xc6 <__bad_interrupt>
  52:	00 00       	nop
  54:	38 c0       	rjmp	.+112    	; 0xc6 <__bad_interrupt>
  56:	00 00       	nop
  58:	36 c0       	rjmp	.+108    	; 0xc6 <__bad_interrupt>
  5a:	00 00       	nop
  5c:	34 c0       	rjmp	.+104    	; 0xc6 <__bad_interrupt>
  5e:	00 00       	nop
  60:	32 c0       	rjmp	.+100    	; 0xc6 <__bad_interrupt>
  62:	00 00       	nop
  64:	30 c0       	rjmp	.+96     	; 0xc6 <__bad_interrupt>
  66:	00 00       	nop
  68:	2e c0       	rjmp	.+92     	; 0xc6 <__bad_interrupt>
  6a:	00 00       	nop
  6c:	2c c0       	rjmp	.+88     	; 0xc6 <__bad_interrupt>
  6e:	00 00       	nop
  70:	2a c0       	rjmp	.+84     	; 0xc6 <__bad_interrupt>
  72:	00 00       	nop
  74:	28 c0       	rjmp	.+80     	; 0xc6 <__bad_interrupt>
  76:	00 00       	nop
  78:	26 c0       	rjmp	.+76     	; 0xc6 <__bad_interrupt>
  7a:	00 00       	nop
  7c:	24 c0       	rjmp	.+72     	; 0xc6 <__bad_interrupt>
  7e:	00 00       	nop
  80:	22 c0       	rjmp	.+68     	; 0xc6 <__bad_interrupt>
  82:	00 00       	nop
  84:	20 c0       	rjmp	.+64     	; 0xc6 <__bad_interrupt>
  86:	00 00       	nop
  88:	1e c0       	rjmp	.+60     	; 0xc6 <__bad_interrupt>
	...

0000008c <__ctors_end>:
  8c:	11 24       	eor	r1, r1
  8e:	1f be       	out	0x3f, r1	; 63
  90:	cf ef       	ldi	r28, 0xFF	; 255
  92:	d0 e1       	ldi	r29, 0x10	; 16
  94:	de bf       	out	0x3e, r29	; 62
  96:	cd bf       	out	0x3d, r28	; 61

00000098 <__do_copy_data>:
  98:	11 e0       	ldi	r17, 0x01	; 1
  9a:	a0 e0       	ldi	r26, 0x00	; 0
  9c:	b1 e0       	ldi	r27, 0x01	; 1
  9e:	e4 e1       	ldi	r30, 0x14	; 20
  a0:	fe e0       	ldi	r31, 0x0E	; 14
  a2:	00 e0       	ldi	r16, 0x00	; 0
  a4:	0b bf       	out	0x3b, r16	; 59
  a6:	02 c0       	rjmp	.+4      	; 0xac <__do_copy_data+0x14>
  a8:	07 90       	elpm	r0, Z+
  aa:	0d 92       	st	X+, r0
  ac:	a0 31       	cpi	r26, 0x10	; 16
  ae:	b1 07       	cpc	r27, r17
  b0:	d9 f7       	brne	.-10     	; 0xa8 <__do_copy_data+0x10>

000000b2 <__do_clear_bss>:
  b2:	21 e0       	ldi	r18, 0x01	; 1
  b4:	a0 e1       	ldi	r26, 0x10	; 16
  b6:	b1 e0       	ldi	r27, 0x01	; 1
  b8:	01 c0       	rjmp	.+2      	; 0xbc <.do_clear_bss_start>

000000ba <.do_clear_bss_loop>:
  ba:	1d 92       	st	X+, r1

000000bc <.do_clear_bss_start>:
  bc:	a6 33       	cpi	r26, 0x36	; 54
  be:	b2 07       	cpc	r27, r18
  c0:	e1 f7       	brne	.-8      	; 0xba <.do_clear_bss_loop>
  c2:	02 d0       	rcall	.+4      	; 0xc8 <main>
  c4:	a5 c6       	rjmp	.+3402   	; 0xe10 <_exit>

000000c6 <__bad_interrupt>:
  c6:	9c cf       	rjmp	.-200    	; 0x0 <__vectors>

000000c8 <main>:
int maxIdx = 0;

long mapping(long x,long in_min,long in_max, long out_min, long out_max);
		
int main(void)
{
  c8:	8f 92       	push	r8
  ca:	9f 92       	push	r9
  cc:	af 92       	push	r10
  ce:	bf 92       	push	r11
  d0:	cf 92       	push	r12
  d2:	df 92       	push	r13
  d4:	ef 92       	push	r14
  d6:	ff 92       	push	r15
  d8:	0f 93       	push	r16
  da:	1f 93       	push	r17
  dc:	cf 93       	push	r28
  de:	df 93       	push	r29
  e0:	cd b7       	in	r28, 0x3d	; 61
  e2:	de b7       	in	r29, 0x3e	; 62
	// 상 -> ARM // 상 하
	// 하 -> Car // 상 하


	
	TCCR1A = 0xAA;
  e4:	8f e4       	ldi	r24, 0x4F	; 79
  e6:	90 e0       	ldi	r25, 0x00	; 0
  e8:	2a ea       	ldi	r18, 0xAA	; 170
  ea:	fc 01       	movw	r30, r24
  ec:	20 83       	st	Z, r18
	// COM1A1 COM1A0 COM1B1 COM1B0 COM1C1 COM1C0 WGM11 WGM10
	// 1010 1010 -> ICR 만날시 Set
	// WGM11 WGM10 : 1 0 -> 14번모드 1 1 1 0 을 위함
	TCCR1B = 0x1A;
  ee:	8e e4       	ldi	r24, 0x4E	; 78
  f0:	90 e0       	ldi	r25, 0x00	; 0
  f2:	2a e1       	ldi	r18, 0x1A	; 26
  f4:	fc 01       	movw	r30, r24
  f6:	20 83       	st	Z, r18
	// ICNC1 ICES1 - WGM13 WGM12 CS12 CS11 CS10
	// WGM13 WGM12 : 1 1 -> 14번모드 1 1 1 0 을 위함
	// CS12 CS11 CS10 : 분주율 8 -> 0 1 0 을 위함
	TCCR1C = 0x00;
  f8:	8a e7       	ldi	r24, 0x7A	; 122
  fa:	90 e0       	ldi	r25, 0x00	; 0
  fc:	fc 01       	movw	r30, r24
  fe:	10 82       	st	Z, r1
	ICR1 = 40000;
 100:	86 e4       	ldi	r24, 0x46	; 70
 102:	90 e0       	ldi	r25, 0x00	; 0
 104:	20 e4       	ldi	r18, 0x40	; 64
 106:	3c e9       	ldi	r19, 0x9C	; 156
 108:	fc 01       	movw	r30, r24
 10a:	31 83       	std	Z+1, r19	; 0x01
 10c:	20 83       	st	Z, r18
	// 분주 = 1/16 * 8 * 40000 = 20000nanoSec = 20ms
	// Duty Cycle 설정
	//DDRB = 0xF0;
	// OCR1A, B, C PB5, 6, 7 출력
	
	TCCR3A = 0x82;
 10e:	8b e8       	ldi	r24, 0x8B	; 139
 110:	90 e0       	ldi	r25, 0x00	; 0
 112:	22 e8       	ldi	r18, 0x82	; 130
 114:	fc 01       	movw	r30, r24
 116:	20 83       	st	Z, r18
	TCCR3B = 0x1A;
 118:	8a e8       	ldi	r24, 0x8A	; 138
 11a:	90 e0       	ldi	r25, 0x00	; 0
 11c:	2a e1       	ldi	r18, 0x1A	; 26
 11e:	fc 01       	movw	r30, r24
 120:	20 83       	st	Z, r18
	TCCR3C = 0x00;
 122:	8c e8       	ldi	r24, 0x8C	; 140
 124:	90 e0       	ldi	r25, 0x00	; 0
 126:	fc 01       	movw	r30, r24
 128:	10 82       	st	Z, r1
	ICR3 = 40000;
 12a:	80 e8       	ldi	r24, 0x80	; 128
 12c:	90 e0       	ldi	r25, 0x00	; 0
 12e:	20 e4       	ldi	r18, 0x40	; 64
 130:	3c e9       	ldi	r19, 0x9C	; 156
 132:	fc 01       	movw	r30, r24
 134:	31 83       	std	Z+1, r19	; 0x01
 136:	20 83       	st	Z, r18
	
	DDRE = 0x0F;
 138:	82 e2       	ldi	r24, 0x22	; 34
 13a:	90 e0       	ldi	r25, 0x00	; 0
 13c:	2f e0       	ldi	r18, 0x0F	; 15
 13e:	fc 01       	movw	r30, r24
 140:	20 83       	st	Z, r18
	// OC3A 출력  -> PE3
	// INT 4 입력 -> PE4
	DDRC = 0xF0;
 142:	84 e3       	ldi	r24, 0x34	; 52
 144:	90 e0       	ldi	r25, 0x00	; 0
 146:	20 ef       	ldi	r18, 0xF0	; 240
 148:	fc 01       	movw	r30, r24
 14a:	20 83       	st	Z, r18
	
	// pwm 입력측정을 위한 외부 Interrupt
	EICRA = 0x55;
 14c:	8a e6       	ldi	r24, 0x6A	; 106
 14e:	90 e0       	ldi	r25, 0x00	; 0
 150:	25 e5       	ldi	r18, 0x55	; 85
 152:	fc 01       	movw	r30, r24
 154:	20 83       	st	Z, r18
	// ISC31 ISC30 ISC21 ISC20 | ISC11 ISC10 ISC01 ISC00
	// INT 3, 2, 1, 0
	// Change 설정 Change -> 0 1
	EIMSK = 0x0F;
 156:	89 e5       	ldi	r24, 0x59	; 89
 158:	90 e0       	ldi	r25, 0x00	; 0
 15a:	2f e0       	ldi	r18, 0x0F	; 15
 15c:	fc 01       	movw	r30, r24
 15e:	20 83       	st	Z, r18
	// INT 3, 2, 1, 0 Enable

	
	TCCR0 = 0x6F;
 160:	83 e5       	ldi	r24, 0x53	; 83
 162:	90 e0       	ldi	r25, 0x00	; 0
 164:	2f e6       	ldi	r18, 0x6F	; 111
 166:	fc 01       	movw	r30, r24
 168:	20 83       	st	Z, r18
	// CTC 출력 x
	// WGM00 01 1 1 : Fast PWM mode
	// COM01 00 1 0 : CTC Clear
	// SC02 01 00 : 1024  분주율
	// 1/16 * 1024 * 255 = 160000 = 16ms
	OCR0 = 0; // 이것으로 Duty Cycle 조정
 16a:	81 e5       	ldi	r24, 0x51	; 81
 16c:	90 e0       	ldi	r25, 0x00	; 0
 16e:	fc 01       	movw	r30, r24
 170:	10 82       	st	Z, r1
	// 0 ~ 255
	// Interrupt 는 없으니 TIMSK 설정은 하지 않는다.
	DDRB |= 0x10; // PB4 OC0 출력
 172:	87 e3       	ldi	r24, 0x37	; 55
 174:	90 e0       	ldi	r25, 0x00	; 0
 176:	27 e3       	ldi	r18, 0x37	; 55
 178:	30 e0       	ldi	r19, 0x00	; 0
 17a:	f9 01       	movw	r30, r18
 17c:	20 81       	ld	r18, Z
 17e:	20 61       	ori	r18, 0x10	; 16
 180:	fc 01       	movw	r30, r24
 182:	20 83       	st	Z, r18
	
	DDRB = 0xF0;
 184:	87 e3       	ldi	r24, 0x37	; 55
 186:	90 e0       	ldi	r25, 0x00	; 0
 188:	20 ef       	ldi	r18, 0xF0	; 240
 18a:	fc 01       	movw	r30, r24
 18c:	20 83       	st	Z, r18
	// idx 측정용
	TCCR2 = 0b00000001;
 18e:	85 e4       	ldi	r24, 0x45	; 69
 190:	90 e0       	ldi	r25, 0x00	; 0
 192:	21 e0       	ldi	r18, 0x01	; 1
 194:	fc 01       	movw	r30, r24
 196:	20 83       	st	Z, r18
	TIMSK |= 0x40;
 198:	87 e5       	ldi	r24, 0x57	; 87
 19a:	90 e0       	ldi	r25, 0x00	; 0
 19c:	27 e5       	ldi	r18, 0x57	; 87
 19e:	30 e0       	ldi	r19, 0x00	; 0
 1a0:	f9 01       	movw	r30, r18
 1a2:	20 81       	ld	r18, Z
 1a4:	20 64       	ori	r18, 0x40	; 64
 1a6:	fc 01       	movw	r30, r24
 1a8:	20 83       	st	Z, r18
	TCNT2 = 0;
 1aa:	84 e4       	ldi	r24, 0x44	; 68
 1ac:	90 e0       	ldi	r25, 0x00	; 0
 1ae:	fc 01       	movw	r30, r24
 1b0:	10 82       	st	Z, r1
	
	
	sei();
 1b2:	78 94       	sei
	
    while (1) 
    {
		
		// 상 상 ARM 0
		if( (pwmValue[2] < 70) && (pwmValue[3] < 70) ){
 1b4:	80 91 2e 01 	lds	r24, 0x012E	; 0x80012e <pwmValue+0x8>
 1b8:	90 91 2f 01 	lds	r25, 0x012F	; 0x80012f <pwmValue+0x9>
 1bc:	a0 91 30 01 	lds	r26, 0x0130	; 0x800130 <pwmValue+0xa>
 1c0:	b0 91 31 01 	lds	r27, 0x0131	; 0x800131 <pwmValue+0xb>
 1c4:	86 34       	cpi	r24, 0x46	; 70
 1c6:	91 05       	cpc	r25, r1
 1c8:	a1 05       	cpc	r26, r1
 1ca:	b1 05       	cpc	r27, r1
 1cc:	a8 f4       	brcc	.+42     	; 0x1f8 <main+0x130>
 1ce:	80 91 32 01 	lds	r24, 0x0132	; 0x800132 <pwmValue+0xc>
 1d2:	90 91 33 01 	lds	r25, 0x0133	; 0x800133 <pwmValue+0xd>
 1d6:	a0 91 34 01 	lds	r26, 0x0134	; 0x800134 <pwmValue+0xe>
 1da:	b0 91 35 01 	lds	r27, 0x0135	; 0x800135 <pwmValue+0xf>
 1de:	86 34       	cpi	r24, 0x46	; 70
 1e0:	91 05       	cpc	r25, r1
 1e2:	a1 05       	cpc	r26, r1
 1e4:	b1 05       	cpc	r27, r1
 1e6:	40 f4       	brcc	.+16     	; 0x1f8 <main+0x130>
			mode = 0;
 1e8:	10 92 11 01 	sts	0x0111, r1	; 0x800111 <__data_end+0x1>
 1ec:	10 92 10 01 	sts	0x0110, r1	; 0x800110 <__data_end>
			ArmServo(0);
 1f0:	80 e0       	ldi	r24, 0x00	; 0
 1f2:	90 e0       	ldi	r25, 0x00	; 0
 1f4:	eb d2       	rcall	.+1494   	; 0x7cc <ArmServo>
	
    while (1) 
    {
		
		// 상 상 ARM 0
		if( (pwmValue[2] < 70) && (pwmValue[3] < 70) ){
 1f6:	72 c0       	rjmp	.+228    	; 0x2dc <main+0x214>
			mode = 0;
			ArmServo(0);
		}
		else if( (pwmValue[2] < 70) && (pwmValue[3] > 90) ){
 1f8:	80 91 2e 01 	lds	r24, 0x012E	; 0x80012e <pwmValue+0x8>
 1fc:	90 91 2f 01 	lds	r25, 0x012F	; 0x80012f <pwmValue+0x9>
 200:	a0 91 30 01 	lds	r26, 0x0130	; 0x800130 <pwmValue+0xa>
 204:	b0 91 31 01 	lds	r27, 0x0131	; 0x800131 <pwmValue+0xb>
 208:	86 34       	cpi	r24, 0x46	; 70
 20a:	91 05       	cpc	r25, r1
 20c:	a1 05       	cpc	r26, r1
 20e:	b1 05       	cpc	r27, r1
 210:	b8 f4       	brcc	.+46     	; 0x240 <main+0x178>
 212:	80 91 32 01 	lds	r24, 0x0132	; 0x800132 <pwmValue+0xc>
 216:	90 91 33 01 	lds	r25, 0x0133	; 0x800133 <pwmValue+0xd>
 21a:	a0 91 34 01 	lds	r26, 0x0134	; 0x800134 <pwmValue+0xe>
 21e:	b0 91 35 01 	lds	r27, 0x0135	; 0x800135 <pwmValue+0xf>
 222:	8b 35       	cpi	r24, 0x5B	; 91
 224:	91 05       	cpc	r25, r1
 226:	a1 05       	cpc	r26, r1
 228:	b1 05       	cpc	r27, r1
 22a:	50 f0       	brcs	.+20     	; 0x240 <main+0x178>
			// 상 하 ARM 1
			mode = 1;
 22c:	81 e0       	ldi	r24, 0x01	; 1
 22e:	90 e0       	ldi	r25, 0x00	; 0
 230:	90 93 11 01 	sts	0x0111, r25	; 0x800111 <__data_end+0x1>
 234:	80 93 10 01 	sts	0x0110, r24	; 0x800110 <__data_end>
			ArmServo(2);
 238:	82 e0       	ldi	r24, 0x02	; 2
 23a:	90 e0       	ldi	r25, 0x00	; 0
 23c:	c7 d2       	rcall	.+1422   	; 0x7cc <ArmServo>
		// 상 상 ARM 0
		if( (pwmValue[2] < 70) && (pwmValue[3] < 70) ){
			mode = 0;
			ArmServo(0);
		}
		else if( (pwmValue[2] < 70) && (pwmValue[3] > 90) ){
 23e:	4e c0       	rjmp	.+156    	; 0x2dc <main+0x214>
			// 상 하 ARM 1
			mode = 1;
			ArmServo(2);
		}
		else if( (pwmValue[2] > 90) && (pwmValue[3] < 70) ){
 240:	80 91 2e 01 	lds	r24, 0x012E	; 0x80012e <pwmValue+0x8>
 244:	90 91 2f 01 	lds	r25, 0x012F	; 0x80012f <pwmValue+0x9>
 248:	a0 91 30 01 	lds	r26, 0x0130	; 0x800130 <pwmValue+0xa>
 24c:	b0 91 31 01 	lds	r27, 0x0131	; 0x800131 <pwmValue+0xb>
 250:	8b 35       	cpi	r24, 0x5B	; 91
 252:	91 05       	cpc	r25, r1
 254:	a1 05       	cpc	r26, r1
 256:	b1 05       	cpc	r27, r1
 258:	b8 f0       	brcs	.+46     	; 0x288 <main+0x1c0>
 25a:	80 91 32 01 	lds	r24, 0x0132	; 0x800132 <pwmValue+0xc>
 25e:	90 91 33 01 	lds	r25, 0x0133	; 0x800133 <pwmValue+0xd>
 262:	a0 91 34 01 	lds	r26, 0x0134	; 0x800134 <pwmValue+0xe>
 266:	b0 91 35 01 	lds	r27, 0x0135	; 0x800135 <pwmValue+0xf>
 26a:	86 34       	cpi	r24, 0x46	; 70
 26c:	91 05       	cpc	r25, r1
 26e:	a1 05       	cpc	r26, r1
 270:	b1 05       	cpc	r27, r1
 272:	50 f4       	brcc	.+20     	; 0x288 <main+0x1c0>
			// 하 상 CAR 0
			// 직진 좌우
			mode = 2;
 274:	82 e0       	ldi	r24, 0x02	; 2
 276:	90 e0       	ldi	r25, 0x00	; 0
 278:	90 93 11 01 	sts	0x0111, r25	; 0x800111 <__data_end+0x1>
 27c:	80 93 10 01 	sts	0x0110, r24	; 0x800110 <__data_end>
			DCMotor(0);
 280:	80 e0       	ldi	r24, 0x00	; 0
 282:	90 e0       	ldi	r25, 0x00	; 0
 284:	f4 d1       	rcall	.+1000   	; 0x66e <DCMotor>
		else if( (pwmValue[2] < 70) && (pwmValue[3] > 90) ){
			// 상 하 ARM 1
			mode = 1;
			ArmServo(2);
		}
		else if( (pwmValue[2] > 90) && (pwmValue[3] < 70) ){
 286:	2a c0       	rjmp	.+84     	; 0x2dc <main+0x214>
			// 하 상 CAR 0
			// 직진 좌우
			mode = 2;
			DCMotor(0);
		}
		else if( (pwmValue[2] > 90) && (pwmValue[3] > 90) ){
 288:	80 91 2e 01 	lds	r24, 0x012E	; 0x80012e <pwmValue+0x8>
 28c:	90 91 2f 01 	lds	r25, 0x012F	; 0x80012f <pwmValue+0x9>
 290:	a0 91 30 01 	lds	r26, 0x0130	; 0x800130 <pwmValue+0xa>
 294:	b0 91 31 01 	lds	r27, 0x0131	; 0x800131 <pwmValue+0xb>
 298:	8b 35       	cpi	r24, 0x5B	; 91
 29a:	91 05       	cpc	r25, r1
 29c:	a1 05       	cpc	r26, r1
 29e:	b1 05       	cpc	r27, r1
 2a0:	b8 f0       	brcs	.+46     	; 0x2d0 <main+0x208>
 2a2:	80 91 32 01 	lds	r24, 0x0132	; 0x800132 <pwmValue+0xc>
 2a6:	90 91 33 01 	lds	r25, 0x0133	; 0x800133 <pwmValue+0xd>
 2aa:	a0 91 34 01 	lds	r26, 0x0134	; 0x800134 <pwmValue+0xe>
 2ae:	b0 91 35 01 	lds	r27, 0x0135	; 0x800135 <pwmValue+0xf>
 2b2:	8b 35       	cpi	r24, 0x5B	; 91
 2b4:	91 05       	cpc	r25, r1
 2b6:	a1 05       	cpc	r26, r1
 2b8:	b1 05       	cpc	r27, r1
 2ba:	50 f0       	brcs	.+20     	; 0x2d0 <main+0x208>
			// 하 하 CAR 1
			// 직진 스로틀
			mode = 3;
 2bc:	83 e0       	ldi	r24, 0x03	; 3
 2be:	90 e0       	ldi	r25, 0x00	; 0
 2c0:	90 93 11 01 	sts	0x0111, r25	; 0x800111 <__data_end+0x1>
 2c4:	80 93 10 01 	sts	0x0110, r24	; 0x800110 <__data_end>
			DCMotor(1);
 2c8:	81 e0       	ldi	r24, 0x01	; 1
 2ca:	90 e0       	ldi	r25, 0x00	; 0
 2cc:	d0 d1       	rcall	.+928    	; 0x66e <DCMotor>
			// 하 상 CAR 0
			// 직진 좌우
			mode = 2;
			DCMotor(0);
		}
		else if( (pwmValue[2] > 90) && (pwmValue[3] > 90) ){
 2ce:	06 c0       	rjmp	.+12     	; 0x2dc <main+0x214>
			// 직진 스로틀
			mode = 3;
			DCMotor(1);
		}
		else{
			mode = 4;
 2d0:	84 e0       	ldi	r24, 0x04	; 4
 2d2:	90 e0       	ldi	r25, 0x00	; 0
 2d4:	90 93 11 01 	sts	0x0111, r25	; 0x800111 <__data_end+0x1>
 2d8:	80 93 10 01 	sts	0x0110, r24	; 0x800110 <__data_end>
		}
		
		
		
		OCR1A = mapping(setAngel[0] , 0, 180, 1000, 5000);
 2dc:	0f 2e       	mov	r0, r31
 2de:	fa e4       	ldi	r31, 0x4A	; 74
 2e0:	8f 2e       	mov	r8, r31
 2e2:	91 2c       	mov	r9, r1
 2e4:	f0 2d       	mov	r31, r0
 2e6:	80 91 00 01 	lds	r24, 0x0100	; 0x800100 <__DATA_REGION_ORIGIN__>
 2ea:	90 91 01 01 	lds	r25, 0x0101	; 0x800101 <__DATA_REGION_ORIGIN__+0x1>
 2ee:	a0 91 02 01 	lds	r26, 0x0102	; 0x800102 <__DATA_REGION_ORIGIN__+0x2>
 2f2:	b0 91 03 01 	lds	r27, 0x0103	; 0x800103 <__DATA_REGION_ORIGIN__+0x3>
 2f6:	1f 92       	push	r1
 2f8:	1f 92       	push	r1
 2fa:	23 e1       	ldi	r18, 0x13	; 19
 2fc:	2f 93       	push	r18
 2fe:	28 e8       	ldi	r18, 0x88	; 136
 300:	2f 93       	push	r18
 302:	0f 2e       	mov	r0, r31
 304:	f8 ee       	ldi	r31, 0xE8	; 232
 306:	af 2e       	mov	r10, r31
 308:	f3 e0       	ldi	r31, 0x03	; 3
 30a:	bf 2e       	mov	r11, r31
 30c:	c1 2c       	mov	r12, r1
 30e:	d1 2c       	mov	r13, r1
 310:	f0 2d       	mov	r31, r0
 312:	14 eb       	ldi	r17, 0xB4	; 180
 314:	e1 2e       	mov	r14, r17
 316:	f1 2c       	mov	r15, r1
 318:	00 e0       	ldi	r16, 0x00	; 0
 31a:	10 e0       	ldi	r17, 0x00	; 0
 31c:	20 e0       	ldi	r18, 0x00	; 0
 31e:	30 e0       	ldi	r19, 0x00	; 0
 320:	a9 01       	movw	r20, r18
 322:	bc 01       	movw	r22, r24
 324:	cd 01       	movw	r24, r26
 326:	66 d4       	rcall	.+2252   	; 0xbf4 <mapping>
 328:	0f 90       	pop	r0
 32a:	0f 90       	pop	r0
 32c:	0f 90       	pop	r0
 32e:	0f 90       	pop	r0
 330:	dc 01       	movw	r26, r24
 332:	cb 01       	movw	r24, r22
 334:	f4 01       	movw	r30, r8
 336:	91 83       	std	Z+1, r25	; 0x01
 338:	80 83       	st	Z, r24
		OCR1B = mapping(setAngel[1] , 0, 180, 1000, 5000);
 33a:	0f 2e       	mov	r0, r31
 33c:	f8 e4       	ldi	r31, 0x48	; 72
 33e:	8f 2e       	mov	r8, r31
 340:	91 2c       	mov	r9, r1
 342:	f0 2d       	mov	r31, r0
 344:	80 91 04 01 	lds	r24, 0x0104	; 0x800104 <__DATA_REGION_ORIGIN__+0x4>
 348:	90 91 05 01 	lds	r25, 0x0105	; 0x800105 <__DATA_REGION_ORIGIN__+0x5>
 34c:	a0 91 06 01 	lds	r26, 0x0106	; 0x800106 <__DATA_REGION_ORIGIN__+0x6>
 350:	b0 91 07 01 	lds	r27, 0x0107	; 0x800107 <__DATA_REGION_ORIGIN__+0x7>
 354:	1f 92       	push	r1
 356:	1f 92       	push	r1
 358:	23 e1       	ldi	r18, 0x13	; 19
 35a:	2f 93       	push	r18
 35c:	28 e8       	ldi	r18, 0x88	; 136
 35e:	2f 93       	push	r18
 360:	0f 2e       	mov	r0, r31
 362:	f8 ee       	ldi	r31, 0xE8	; 232
 364:	af 2e       	mov	r10, r31
 366:	f3 e0       	ldi	r31, 0x03	; 3
 368:	bf 2e       	mov	r11, r31
 36a:	c1 2c       	mov	r12, r1
 36c:	d1 2c       	mov	r13, r1
 36e:	f0 2d       	mov	r31, r0
 370:	14 eb       	ldi	r17, 0xB4	; 180
 372:	e1 2e       	mov	r14, r17
 374:	f1 2c       	mov	r15, r1
 376:	00 e0       	ldi	r16, 0x00	; 0
 378:	10 e0       	ldi	r17, 0x00	; 0
 37a:	20 e0       	ldi	r18, 0x00	; 0
 37c:	30 e0       	ldi	r19, 0x00	; 0
 37e:	a9 01       	movw	r20, r18
 380:	bc 01       	movw	r22, r24
 382:	cd 01       	movw	r24, r26
 384:	37 d4       	rcall	.+2158   	; 0xbf4 <mapping>
 386:	0f 90       	pop	r0
 388:	0f 90       	pop	r0
 38a:	0f 90       	pop	r0
 38c:	0f 90       	pop	r0
 38e:	dc 01       	movw	r26, r24
 390:	cb 01       	movw	r24, r22
 392:	f4 01       	movw	r30, r8
 394:	91 83       	std	Z+1, r25	; 0x01
 396:	80 83       	st	Z, r24
		OCR1C = mapping(setAngel[2] , 0, 180, 1000, 5000);
 398:	0f 2e       	mov	r0, r31
 39a:	f8 e7       	ldi	r31, 0x78	; 120
 39c:	8f 2e       	mov	r8, r31
 39e:	91 2c       	mov	r9, r1
 3a0:	f0 2d       	mov	r31, r0
 3a2:	80 91 08 01 	lds	r24, 0x0108	; 0x800108 <__DATA_REGION_ORIGIN__+0x8>
 3a6:	90 91 09 01 	lds	r25, 0x0109	; 0x800109 <__DATA_REGION_ORIGIN__+0x9>
 3aa:	a0 91 0a 01 	lds	r26, 0x010A	; 0x80010a <__DATA_REGION_ORIGIN__+0xa>
 3ae:	b0 91 0b 01 	lds	r27, 0x010B	; 0x80010b <__DATA_REGION_ORIGIN__+0xb>
 3b2:	1f 92       	push	r1
 3b4:	1f 92       	push	r1
 3b6:	23 e1       	ldi	r18, 0x13	; 19
 3b8:	2f 93       	push	r18
 3ba:	28 e8       	ldi	r18, 0x88	; 136
 3bc:	2f 93       	push	r18
 3be:	0f 2e       	mov	r0, r31
 3c0:	f8 ee       	ldi	r31, 0xE8	; 232
 3c2:	af 2e       	mov	r10, r31
 3c4:	f3 e0       	ldi	r31, 0x03	; 3
 3c6:	bf 2e       	mov	r11, r31
 3c8:	c1 2c       	mov	r12, r1
 3ca:	d1 2c       	mov	r13, r1
 3cc:	f0 2d       	mov	r31, r0
 3ce:	14 eb       	ldi	r17, 0xB4	; 180
 3d0:	e1 2e       	mov	r14, r17
 3d2:	f1 2c       	mov	r15, r1
 3d4:	00 e0       	ldi	r16, 0x00	; 0
 3d6:	10 e0       	ldi	r17, 0x00	; 0
 3d8:	20 e0       	ldi	r18, 0x00	; 0
 3da:	30 e0       	ldi	r19, 0x00	; 0
 3dc:	a9 01       	movw	r20, r18
 3de:	bc 01       	movw	r22, r24
 3e0:	cd 01       	movw	r24, r26
 3e2:	08 d4       	rcall	.+2064   	; 0xbf4 <mapping>
 3e4:	0f 90       	pop	r0
 3e6:	0f 90       	pop	r0
 3e8:	0f 90       	pop	r0
 3ea:	0f 90       	pop	r0
 3ec:	dc 01       	movw	r26, r24
 3ee:	cb 01       	movw	r24, r22
 3f0:	f4 01       	movw	r30, r8
 3f2:	91 83       	std	Z+1, r25	; 0x01
 3f4:	80 83       	st	Z, r24
		OCR3A = mapping(setAngel[3], 0, 180, 1000, 5000);
 3f6:	0f 2e       	mov	r0, r31
 3f8:	f6 e8       	ldi	r31, 0x86	; 134
 3fa:	8f 2e       	mov	r8, r31
 3fc:	91 2c       	mov	r9, r1
 3fe:	f0 2d       	mov	r31, r0
 400:	80 91 0c 01 	lds	r24, 0x010C	; 0x80010c <__DATA_REGION_ORIGIN__+0xc>
 404:	90 91 0d 01 	lds	r25, 0x010D	; 0x80010d <__DATA_REGION_ORIGIN__+0xd>
 408:	a0 91 0e 01 	lds	r26, 0x010E	; 0x80010e <__DATA_REGION_ORIGIN__+0xe>
 40c:	b0 91 0f 01 	lds	r27, 0x010F	; 0x80010f <__DATA_REGION_ORIGIN__+0xf>
 410:	1f 92       	push	r1
 412:	1f 92       	push	r1
 414:	23 e1       	ldi	r18, 0x13	; 19
 416:	2f 93       	push	r18
 418:	28 e8       	ldi	r18, 0x88	; 136
 41a:	2f 93       	push	r18
 41c:	0f 2e       	mov	r0, r31
 41e:	f8 ee       	ldi	r31, 0xE8	; 232
 420:	af 2e       	mov	r10, r31
 422:	f3 e0       	ldi	r31, 0x03	; 3
 424:	bf 2e       	mov	r11, r31
 426:	c1 2c       	mov	r12, r1
 428:	d1 2c       	mov	r13, r1
 42a:	f0 2d       	mov	r31, r0
 42c:	14 eb       	ldi	r17, 0xB4	; 180
 42e:	e1 2e       	mov	r14, r17
 430:	f1 2c       	mov	r15, r1
 432:	00 e0       	ldi	r16, 0x00	; 0
 434:	10 e0       	ldi	r17, 0x00	; 0
 436:	20 e0       	ldi	r18, 0x00	; 0
 438:	30 e0       	ldi	r19, 0x00	; 0
 43a:	a9 01       	movw	r20, r18
 43c:	bc 01       	movw	r22, r24
 43e:	cd 01       	movw	r24, r26
 440:	d9 d3       	rcall	.+1970   	; 0xbf4 <mapping>
 442:	0f 90       	pop	r0
 444:	0f 90       	pop	r0
 446:	0f 90       	pop	r0
 448:	0f 90       	pop	r0
 44a:	dc 01       	movw	r26, r24
 44c:	cb 01       	movw	r24, r22
 44e:	f4 01       	movw	r30, r8
 450:	91 83       	std	Z+1, r25	; 0x01
 452:	80 83       	st	Z, r24
    }
 454:	af ce       	rjmp	.-674    	; 0x1b4 <main+0xec>

00000456 <__vector_1>:
}


// value0
ISR(INT0_vect){
 456:	1f 92       	push	r1
 458:	0f 92       	push	r0
 45a:	00 90 5f 00 	lds	r0, 0x005F	; 0x80005f <__TEXT_REGION_LENGTH__+0x7e005f>
 45e:	0f 92       	push	r0
 460:	11 24       	eor	r1, r1
 462:	00 90 5b 00 	lds	r0, 0x005B	; 0x80005b <__TEXT_REGION_LENGTH__+0x7e005b>
 466:	0f 92       	push	r0
 468:	2f 93       	push	r18
 46a:	3f 93       	push	r19
 46c:	4f 93       	push	r20
 46e:	5f 93       	push	r21
 470:	6f 93       	push	r22
 472:	7f 93       	push	r23
 474:	8f 93       	push	r24
 476:	9f 93       	push	r25
 478:	af 93       	push	r26
 47a:	bf 93       	push	r27
 47c:	ef 93       	push	r30
 47e:	ff 93       	push	r31
 480:	cf 93       	push	r28
 482:	df 93       	push	r29
 484:	cd b7       	in	r28, 0x3d	; 61
 486:	de b7       	in	r29, 0x3e	; 62
	INT_Method(0);
 488:	80 e0       	ldi	r24, 0x00	; 0
 48a:	90 e0       	ldi	r25, 0x00	; 0
 48c:	39 d3       	rcall	.+1650   	; 0xb00 <INT_Method>
}
 48e:	00 00       	nop
 490:	df 91       	pop	r29
 492:	cf 91       	pop	r28
 494:	ff 91       	pop	r31
 496:	ef 91       	pop	r30
 498:	bf 91       	pop	r27
 49a:	af 91       	pop	r26
 49c:	9f 91       	pop	r25
 49e:	8f 91       	pop	r24
 4a0:	7f 91       	pop	r23
 4a2:	6f 91       	pop	r22
 4a4:	5f 91       	pop	r21
 4a6:	4f 91       	pop	r20
 4a8:	3f 91       	pop	r19
 4aa:	2f 91       	pop	r18
 4ac:	0f 90       	pop	r0
 4ae:	00 92 5b 00 	sts	0x005B, r0	; 0x80005b <__TEXT_REGION_LENGTH__+0x7e005b>
 4b2:	0f 90       	pop	r0
 4b4:	00 92 5f 00 	sts	0x005F, r0	; 0x80005f <__TEXT_REGION_LENGTH__+0x7e005f>
 4b8:	0f 90       	pop	r0
 4ba:	1f 90       	pop	r1
 4bc:	18 95       	reti

000004be <__vector_2>:

// value1
ISR(INT1_vect){
 4be:	1f 92       	push	r1
 4c0:	0f 92       	push	r0
 4c2:	00 90 5f 00 	lds	r0, 0x005F	; 0x80005f <__TEXT_REGION_LENGTH__+0x7e005f>
 4c6:	0f 92       	push	r0
 4c8:	11 24       	eor	r1, r1
 4ca:	00 90 5b 00 	lds	r0, 0x005B	; 0x80005b <__TEXT_REGION_LENGTH__+0x7e005b>
 4ce:	0f 92       	push	r0
 4d0:	2f 93       	push	r18
 4d2:	3f 93       	push	r19
 4d4:	4f 93       	push	r20
 4d6:	5f 93       	push	r21
 4d8:	6f 93       	push	r22
 4da:	7f 93       	push	r23
 4dc:	8f 93       	push	r24
 4de:	9f 93       	push	r25
 4e0:	af 93       	push	r26
 4e2:	bf 93       	push	r27
 4e4:	ef 93       	push	r30
 4e6:	ff 93       	push	r31
 4e8:	cf 93       	push	r28
 4ea:	df 93       	push	r29
 4ec:	cd b7       	in	r28, 0x3d	; 61
 4ee:	de b7       	in	r29, 0x3e	; 62
	INT_Method(1);
 4f0:	81 e0       	ldi	r24, 0x01	; 1
 4f2:	90 e0       	ldi	r25, 0x00	; 0
 4f4:	05 d3       	rcall	.+1546   	; 0xb00 <INT_Method>
}
 4f6:	00 00       	nop
 4f8:	df 91       	pop	r29
 4fa:	cf 91       	pop	r28
 4fc:	ff 91       	pop	r31
 4fe:	ef 91       	pop	r30
 500:	bf 91       	pop	r27
 502:	af 91       	pop	r26
 504:	9f 91       	pop	r25
 506:	8f 91       	pop	r24
 508:	7f 91       	pop	r23
 50a:	6f 91       	pop	r22
 50c:	5f 91       	pop	r21
 50e:	4f 91       	pop	r20
 510:	3f 91       	pop	r19
 512:	2f 91       	pop	r18
 514:	0f 90       	pop	r0
 516:	00 92 5b 00 	sts	0x005B, r0	; 0x80005b <__TEXT_REGION_LENGTH__+0x7e005b>
 51a:	0f 90       	pop	r0
 51c:	00 92 5f 00 	sts	0x005F, r0	; 0x80005f <__TEXT_REGION_LENGTH__+0x7e005f>
 520:	0f 90       	pop	r0
 522:	1f 90       	pop	r1
 524:	18 95       	reti

00000526 <__vector_3>:

// mode0
ISR(INT2_vect){
 526:	1f 92       	push	r1
 528:	0f 92       	push	r0
 52a:	00 90 5f 00 	lds	r0, 0x005F	; 0x80005f <__TEXT_REGION_LENGTH__+0x7e005f>
 52e:	0f 92       	push	r0
 530:	11 24       	eor	r1, r1
 532:	00 90 5b 00 	lds	r0, 0x005B	; 0x80005b <__TEXT_REGION_LENGTH__+0x7e005b>
 536:	0f 92       	push	r0
 538:	2f 93       	push	r18
 53a:	3f 93       	push	r19
 53c:	4f 93       	push	r20
 53e:	5f 93       	push	r21
 540:	6f 93       	push	r22
 542:	7f 93       	push	r23
 544:	8f 93       	push	r24
 546:	9f 93       	push	r25
 548:	af 93       	push	r26
 54a:	bf 93       	push	r27
 54c:	ef 93       	push	r30
 54e:	ff 93       	push	r31
 550:	cf 93       	push	r28
 552:	df 93       	push	r29
 554:	cd b7       	in	r28, 0x3d	; 61
 556:	de b7       	in	r29, 0x3e	; 62
	INT_Method(2);
 558:	82 e0       	ldi	r24, 0x02	; 2
 55a:	90 e0       	ldi	r25, 0x00	; 0
 55c:	d1 d2       	rcall	.+1442   	; 0xb00 <INT_Method>
}
 55e:	00 00       	nop
 560:	df 91       	pop	r29
 562:	cf 91       	pop	r28
 564:	ff 91       	pop	r31
 566:	ef 91       	pop	r30
 568:	bf 91       	pop	r27
 56a:	af 91       	pop	r26
 56c:	9f 91       	pop	r25
 56e:	8f 91       	pop	r24
 570:	7f 91       	pop	r23
 572:	6f 91       	pop	r22
 574:	5f 91       	pop	r21
 576:	4f 91       	pop	r20
 578:	3f 91       	pop	r19
 57a:	2f 91       	pop	r18
 57c:	0f 90       	pop	r0
 57e:	00 92 5b 00 	sts	0x005B, r0	; 0x80005b <__TEXT_REGION_LENGTH__+0x7e005b>
 582:	0f 90       	pop	r0
 584:	00 92 5f 00 	sts	0x005F, r0	; 0x80005f <__TEXT_REGION_LENGTH__+0x7e005f>
 588:	0f 90       	pop	r0
 58a:	1f 90       	pop	r1
 58c:	18 95       	reti

0000058e <__vector_4>:

//mode1
ISR(INT3_vect){
 58e:	1f 92       	push	r1
 590:	0f 92       	push	r0
 592:	00 90 5f 00 	lds	r0, 0x005F	; 0x80005f <__TEXT_REGION_LENGTH__+0x7e005f>
 596:	0f 92       	push	r0
 598:	11 24       	eor	r1, r1
 59a:	00 90 5b 00 	lds	r0, 0x005B	; 0x80005b <__TEXT_REGION_LENGTH__+0x7e005b>
 59e:	0f 92       	push	r0
 5a0:	2f 93       	push	r18
 5a2:	3f 93       	push	r19
 5a4:	4f 93       	push	r20
 5a6:	5f 93       	push	r21
 5a8:	6f 93       	push	r22
 5aa:	7f 93       	push	r23
 5ac:	8f 93       	push	r24
 5ae:	9f 93       	push	r25
 5b0:	af 93       	push	r26
 5b2:	bf 93       	push	r27
 5b4:	ef 93       	push	r30
 5b6:	ff 93       	push	r31
 5b8:	cf 93       	push	r28
 5ba:	df 93       	push	r29
 5bc:	cd b7       	in	r28, 0x3d	; 61
 5be:	de b7       	in	r29, 0x3e	; 62
	INT_Method(3);
 5c0:	83 e0       	ldi	r24, 0x03	; 3
 5c2:	90 e0       	ldi	r25, 0x00	; 0
 5c4:	9d d2       	rcall	.+1338   	; 0xb00 <INT_Method>
}
 5c6:	00 00       	nop
 5c8:	df 91       	pop	r29
 5ca:	cf 91       	pop	r28
 5cc:	ff 91       	pop	r31
 5ce:	ef 91       	pop	r30
 5d0:	bf 91       	pop	r27
 5d2:	af 91       	pop	r26
 5d4:	9f 91       	pop	r25
 5d6:	8f 91       	pop	r24
 5d8:	7f 91       	pop	r23
 5da:	6f 91       	pop	r22
 5dc:	5f 91       	pop	r21
 5de:	4f 91       	pop	r20
 5e0:	3f 91       	pop	r19
 5e2:	2f 91       	pop	r18
 5e4:	0f 90       	pop	r0
 5e6:	00 92 5b 00 	sts	0x005B, r0	; 0x80005b <__TEXT_REGION_LENGTH__+0x7e005b>
 5ea:	0f 90       	pop	r0
 5ec:	00 92 5f 00 	sts	0x005F, r0	; 0x80005f <__TEXT_REGION_LENGTH__+0x7e005f>
 5f0:	0f 90       	pop	r0
 5f2:	1f 90       	pop	r1
 5f4:	18 95       	reti

000005f6 <__vector_10>:

ISR(TIMER2_OVF_vect){
 5f6:	1f 92       	push	r1
 5f8:	0f 92       	push	r0
 5fa:	00 90 5f 00 	lds	r0, 0x005F	; 0x80005f <__TEXT_REGION_LENGTH__+0x7e005f>
 5fe:	0f 92       	push	r0
 600:	11 24       	eor	r1, r1
 602:	00 90 5b 00 	lds	r0, 0x005B	; 0x80005b <__TEXT_REGION_LENGTH__+0x7e005b>
 606:	0f 92       	push	r0
 608:	8f 93       	push	r24
 60a:	9f 93       	push	r25
 60c:	af 93       	push	r26
 60e:	bf 93       	push	r27
 610:	ef 93       	push	r30
 612:	ff 93       	push	r31
 614:	cf 93       	push	r28
 616:	df 93       	push	r29
 618:	cd b7       	in	r28, 0x3d	; 61
 61a:	de b7       	in	r29, 0x3e	; 62
	idx = idx + 1;
 61c:	80 91 12 01 	lds	r24, 0x0112	; 0x800112 <idx>
 620:	90 91 13 01 	lds	r25, 0x0113	; 0x800113 <idx+0x1>
 624:	a0 91 14 01 	lds	r26, 0x0114	; 0x800114 <idx+0x2>
 628:	b0 91 15 01 	lds	r27, 0x0115	; 0x800115 <idx+0x3>
 62c:	01 96       	adiw	r24, 0x01	; 1
 62e:	a1 1d       	adc	r26, r1
 630:	b1 1d       	adc	r27, r1
 632:	80 93 12 01 	sts	0x0112, r24	; 0x800112 <idx>
 636:	90 93 13 01 	sts	0x0113, r25	; 0x800113 <idx+0x1>
 63a:	a0 93 14 01 	sts	0x0114, r26	; 0x800114 <idx+0x2>
 63e:	b0 93 15 01 	sts	0x0115, r27	; 0x800115 <idx+0x3>
	TCNT2 = 0;
 642:	84 e4       	ldi	r24, 0x44	; 68
 644:	90 e0       	ldi	r25, 0x00	; 0
 646:	fc 01       	movw	r30, r24
 648:	10 82       	st	Z, r1
}
 64a:	00 00       	nop
 64c:	df 91       	pop	r29
 64e:	cf 91       	pop	r28
 650:	ff 91       	pop	r31
 652:	ef 91       	pop	r30
 654:	bf 91       	pop	r27
 656:	af 91       	pop	r26
 658:	9f 91       	pop	r25
 65a:	8f 91       	pop	r24
 65c:	0f 90       	pop	r0
 65e:	00 92 5b 00 	sts	0x005B, r0	; 0x80005b <__TEXT_REGION_LENGTH__+0x7e005b>
 662:	0f 90       	pop	r0
 664:	00 92 5f 00 	sts	0x005F, r0	; 0x80005f <__TEXT_REGION_LENGTH__+0x7e005f>
 668:	0f 90       	pop	r0
 66a:	1f 90       	pop	r1
 66c:	18 95       	reti

0000066e <DCMotor>:

void DCMotor(int a){
 66e:	8f 92       	push	r8
 670:	9f 92       	push	r9
 672:	af 92       	push	r10
 674:	bf 92       	push	r11
 676:	cf 92       	push	r12
 678:	df 92       	push	r13
 67a:	ef 92       	push	r14
 67c:	ff 92       	push	r15
 67e:	0f 93       	push	r16
 680:	1f 93       	push	r17
 682:	cf 93       	push	r28
 684:	df 93       	push	r29
 686:	cd b7       	in	r28, 0x3d	; 61
 688:	de b7       	in	r29, 0x3e	; 62
 68a:	2a 97       	sbiw	r28, 0x0a	; 10
 68c:	0f b6       	in	r0, 0x3f	; 63
 68e:	f8 94       	cli
 690:	de bf       	out	0x3e, r29	; 62
 692:	0f be       	out	0x3f, r0	; 63
 694:	cd bf       	out	0x3d, r28	; 61
 696:	9a 87       	std	Y+10, r25	; 0x0a
 698:	89 87       	std	Y+9, r24	; 0x09
	
	long pwmGet = 0;
 69a:	19 82       	std	Y+1, r1	; 0x01
 69c:	1a 82       	std	Y+2, r1	; 0x02
 69e:	1b 82       	std	Y+3, r1	; 0x03
 6a0:	1c 82       	std	Y+4, r1	; 0x04
	pwmGet = pwmValue[0] - 75;
 6a2:	80 91 26 01 	lds	r24, 0x0126	; 0x800126 <pwmValue>
 6a6:	90 91 27 01 	lds	r25, 0x0127	; 0x800127 <pwmValue+0x1>
 6aa:	a0 91 28 01 	lds	r26, 0x0128	; 0x800128 <pwmValue+0x2>
 6ae:	b0 91 29 01 	lds	r27, 0x0129	; 0x800129 <pwmValue+0x3>
 6b2:	8b 54       	subi	r24, 0x4B	; 75
 6b4:	91 09       	sbc	r25, r1
 6b6:	a1 09       	sbc	r26, r1
 6b8:	b1 09       	sbc	r27, r1
 6ba:	89 83       	std	Y+1, r24	; 0x01
 6bc:	9a 83       	std	Y+2, r25	; 0x02
 6be:	ab 83       	std	Y+3, r26	; 0x03
 6c0:	bc 83       	std	Y+4, r27	; 0x04
	if(pwmGet < 0){
 6c2:	89 81       	ldd	r24, Y+1	; 0x01
 6c4:	9a 81       	ldd	r25, Y+2	; 0x02
 6c6:	ab 81       	ldd	r26, Y+3	; 0x03
 6c8:	bc 81       	ldd	r27, Y+4	; 0x04
 6ca:	bb 23       	and	r27, r27
 6cc:	7c f4       	brge	.+30     	; 0x6ec <DCMotor+0x7e>
		pwmGet = -pwmGet;
 6ce:	89 81       	ldd	r24, Y+1	; 0x01
 6d0:	9a 81       	ldd	r25, Y+2	; 0x02
 6d2:	ab 81       	ldd	r26, Y+3	; 0x03
 6d4:	bc 81       	ldd	r27, Y+4	; 0x04
 6d6:	b0 95       	com	r27
 6d8:	a0 95       	com	r26
 6da:	90 95       	com	r25
 6dc:	81 95       	neg	r24
 6de:	9f 4f       	sbci	r25, 0xFF	; 255
 6e0:	af 4f       	sbci	r26, 0xFF	; 255
 6e2:	bf 4f       	sbci	r27, 0xFF	; 255
 6e4:	89 83       	std	Y+1, r24	; 0x01
 6e6:	9a 83       	std	Y+2, r25	; 0x02
 6e8:	ab 83       	std	Y+3, r26	; 0x03
 6ea:	bc 83       	std	Y+4, r27	; 0x04
	}
	
	if(pwmGet < 3){
 6ec:	89 81       	ldd	r24, Y+1	; 0x01
 6ee:	9a 81       	ldd	r25, Y+2	; 0x02
 6f0:	ab 81       	ldd	r26, Y+3	; 0x03
 6f2:	bc 81       	ldd	r27, Y+4	; 0x04
 6f4:	03 97       	sbiw	r24, 0x03	; 3
 6f6:	a1 05       	cpc	r26, r1
 6f8:	b1 05       	cpc	r27, r1
 6fa:	34 f4       	brge	.+12     	; 0x708 <DCMotor+0x9a>
		OCR0 = 80;
 6fc:	81 e5       	ldi	r24, 0x51	; 81
 6fe:	90 e0       	ldi	r25, 0x00	; 0
 700:	20 e5       	ldi	r18, 0x50	; 80
 702:	fc 01       	movw	r30, r24
 704:	20 83       	st	Z, r18
 706:	28 c0       	rjmp	.+80     	; 0x758 <DCMotor+0xea>
	}
	else{
		OCR0 = mapping(pwmGet, 0, 20, 120, 253);
 708:	0f 2e       	mov	r0, r31
 70a:	f1 e5       	ldi	r31, 0x51	; 81
 70c:	8f 2e       	mov	r8, r31
 70e:	91 2c       	mov	r9, r1
 710:	f0 2d       	mov	r31, r0
 712:	89 81       	ldd	r24, Y+1	; 0x01
 714:	9a 81       	ldd	r25, Y+2	; 0x02
 716:	ab 81       	ldd	r26, Y+3	; 0x03
 718:	bc 81       	ldd	r27, Y+4	; 0x04
 71a:	1f 92       	push	r1
 71c:	1f 92       	push	r1
 71e:	1f 92       	push	r1
 720:	2d ef       	ldi	r18, 0xFD	; 253
 722:	2f 93       	push	r18
 724:	0f 2e       	mov	r0, r31
 726:	f8 e7       	ldi	r31, 0x78	; 120
 728:	af 2e       	mov	r10, r31
 72a:	b1 2c       	mov	r11, r1
 72c:	c1 2c       	mov	r12, r1
 72e:	d1 2c       	mov	r13, r1
 730:	f0 2d       	mov	r31, r0
 732:	14 e1       	ldi	r17, 0x14	; 20
 734:	e1 2e       	mov	r14, r17
 736:	f1 2c       	mov	r15, r1
 738:	00 e0       	ldi	r16, 0x00	; 0
 73a:	10 e0       	ldi	r17, 0x00	; 0
 73c:	20 e0       	ldi	r18, 0x00	; 0
 73e:	30 e0       	ldi	r19, 0x00	; 0
 740:	a9 01       	movw	r20, r18
 742:	bc 01       	movw	r22, r24
 744:	cd 01       	movw	r24, r26
 746:	56 d2       	rcall	.+1196   	; 0xbf4 <mapping>
 748:	0f 90       	pop	r0
 74a:	0f 90       	pop	r0
 74c:	0f 90       	pop	r0
 74e:	0f 90       	pop	r0
 750:	dc 01       	movw	r26, r24
 752:	cb 01       	movw	r24, r22
 754:	f4 01       	movw	r30, r8
 756:	80 83       	st	Z, r24
	}
	
	// maxValue = motor[maxIdx]
	// 방향 = direction 0 정방/1역방
	
	unsigned long past = idx;
 758:	80 91 12 01 	lds	r24, 0x0112	; 0x800112 <idx>
 75c:	90 91 13 01 	lds	r25, 0x0113	; 0x800113 <idx+0x1>
 760:	a0 91 14 01 	lds	r26, 0x0114	; 0x800114 <idx+0x2>
 764:	b0 91 15 01 	lds	r27, 0x0115	; 0x800115 <idx+0x3>
 768:	8d 83       	std	Y+5, r24	; 0x05
 76a:	9e 83       	std	Y+6, r25	; 0x06
 76c:	af 83       	std	Y+7, r26	; 0x07
 76e:	b8 87       	std	Y+8, r27	; 0x08
	while(idx - past < 500){
 770:	00 00       	nop
 772:	20 91 12 01 	lds	r18, 0x0112	; 0x800112 <idx>
 776:	30 91 13 01 	lds	r19, 0x0113	; 0x800113 <idx+0x1>
 77a:	40 91 14 01 	lds	r20, 0x0114	; 0x800114 <idx+0x2>
 77e:	50 91 15 01 	lds	r21, 0x0115	; 0x800115 <idx+0x3>
 782:	8d 81       	ldd	r24, Y+5	; 0x05
 784:	9e 81       	ldd	r25, Y+6	; 0x06
 786:	af 81       	ldd	r26, Y+7	; 0x07
 788:	b8 85       	ldd	r27, Y+8	; 0x08
 78a:	79 01       	movw	r14, r18
 78c:	8a 01       	movw	r16, r20
 78e:	e8 1a       	sub	r14, r24
 790:	f9 0a       	sbc	r15, r25
 792:	0a 0b       	sbc	r16, r26
 794:	1b 0b       	sbc	r17, r27
 796:	d8 01       	movw	r26, r16
 798:	c7 01       	movw	r24, r14
 79a:	84 3f       	cpi	r24, 0xF4	; 244
 79c:	91 40       	sbci	r25, 0x01	; 1
 79e:	a1 05       	cpc	r26, r1
 7a0:	b1 05       	cpc	r27, r1
 7a2:	38 f3       	brcs	.-50     	; 0x772 <DCMotor+0x104>
		;
	}
}
 7a4:	00 00       	nop
 7a6:	2a 96       	adiw	r28, 0x0a	; 10
 7a8:	0f b6       	in	r0, 0x3f	; 63
 7aa:	f8 94       	cli
 7ac:	de bf       	out	0x3e, r29	; 62
 7ae:	0f be       	out	0x3f, r0	; 63
 7b0:	cd bf       	out	0x3d, r28	; 61
 7b2:	df 91       	pop	r29
 7b4:	cf 91       	pop	r28
 7b6:	1f 91       	pop	r17
 7b8:	0f 91       	pop	r16
 7ba:	ff 90       	pop	r15
 7bc:	ef 90       	pop	r14
 7be:	df 90       	pop	r13
 7c0:	cf 90       	pop	r12
 7c2:	bf 90       	pop	r11
 7c4:	af 90       	pop	r10
 7c6:	9f 90       	pop	r9
 7c8:	8f 90       	pop	r8
 7ca:	08 95       	ret

000007cc <ArmServo>:

void ArmServo(int a){
 7cc:	ef 92       	push	r14
 7ce:	ff 92       	push	r15
 7d0:	0f 93       	push	r16
 7d2:	1f 93       	push	r17
 7d4:	cf 93       	push	r28
 7d6:	df 93       	push	r29
 7d8:	00 d0       	rcall	.+0      	; 0x7da <ArmServo+0xe>
 7da:	00 d0       	rcall	.+0      	; 0x7dc <ArmServo+0x10>
 7dc:	00 d0       	rcall	.+0      	; 0x7de <ArmServo+0x12>
 7de:	cd b7       	in	r28, 0x3d	; 61
 7e0:	de b7       	in	r29, 0x3e	; 62
 7e2:	9e 83       	std	Y+6, r25	; 0x06
 7e4:	8d 83       	std	Y+5, r24	; 0x05
	if(pwmValue[0] > 400000){
 7e6:	80 91 26 01 	lds	r24, 0x0126	; 0x800126 <pwmValue>
 7ea:	90 91 27 01 	lds	r25, 0x0127	; 0x800127 <pwmValue+0x1>
 7ee:	a0 91 28 01 	lds	r26, 0x0128	; 0x800128 <pwmValue+0x2>
 7f2:	b0 91 29 01 	lds	r27, 0x0129	; 0x800129 <pwmValue+0x3>
 7f6:	81 38       	cpi	r24, 0x81	; 129
 7f8:	9a 41       	sbci	r25, 0x1A	; 26
 7fa:	a6 40       	sbci	r26, 0x06	; 6
 7fc:	b1 05       	cpc	r27, r1
 7fe:	08 f0       	brcs	.+2      	; 0x802 <ArmServo+0x36>
 800:	9b c0       	rjmp	.+310    	; 0x938 <ArmServo+0x16c>
		
	}
	else{
		if(pwmValue[0] < 70){
 802:	80 91 26 01 	lds	r24, 0x0126	; 0x800126 <pwmValue>
 806:	90 91 27 01 	lds	r25, 0x0127	; 0x800127 <pwmValue+0x1>
 80a:	a0 91 28 01 	lds	r26, 0x0128	; 0x800128 <pwmValue+0x2>
 80e:	b0 91 29 01 	lds	r27, 0x0129	; 0x800129 <pwmValue+0x3>
 812:	86 34       	cpi	r24, 0x46	; 70
 814:	91 05       	cpc	r25, r1
 816:	a1 05       	cpc	r26, r1
 818:	b1 05       	cpc	r27, r1
 81a:	f0 f4       	brcc	.+60     	; 0x858 <ArmServo+0x8c>
			setAngel[a] = setAngel[a] - 1;
 81c:	8d 81       	ldd	r24, Y+5	; 0x05
 81e:	9e 81       	ldd	r25, Y+6	; 0x06
 820:	88 0f       	add	r24, r24
 822:	99 1f       	adc	r25, r25
 824:	88 0f       	add	r24, r24
 826:	99 1f       	adc	r25, r25
 828:	80 50       	subi	r24, 0x00	; 0
 82a:	9f 4f       	sbci	r25, 0xFF	; 255
 82c:	fc 01       	movw	r30, r24
 82e:	80 81       	ld	r24, Z
 830:	91 81       	ldd	r25, Z+1	; 0x01
 832:	a2 81       	ldd	r26, Z+2	; 0x02
 834:	b3 81       	ldd	r27, Z+3	; 0x03
 836:	01 97       	sbiw	r24, 0x01	; 1
 838:	a1 09       	sbc	r26, r1
 83a:	b1 09       	sbc	r27, r1
 83c:	2d 81       	ldd	r18, Y+5	; 0x05
 83e:	3e 81       	ldd	r19, Y+6	; 0x06
 840:	22 0f       	add	r18, r18
 842:	33 1f       	adc	r19, r19
 844:	22 0f       	add	r18, r18
 846:	33 1f       	adc	r19, r19
 848:	20 50       	subi	r18, 0x00	; 0
 84a:	3f 4f       	sbci	r19, 0xFF	; 255
 84c:	f9 01       	movw	r30, r18
 84e:	80 83       	st	Z, r24
 850:	91 83       	std	Z+1, r25	; 0x01
 852:	a2 83       	std	Z+2, r26	; 0x02
 854:	b3 83       	std	Z+3, r27	; 0x03
 856:	2a c0       	rjmp	.+84     	; 0x8ac <ArmServo+0xe0>
		}
		else if(pwmValue[0] > 90){
 858:	80 91 26 01 	lds	r24, 0x0126	; 0x800126 <pwmValue>
 85c:	90 91 27 01 	lds	r25, 0x0127	; 0x800127 <pwmValue+0x1>
 860:	a0 91 28 01 	lds	r26, 0x0128	; 0x800128 <pwmValue+0x2>
 864:	b0 91 29 01 	lds	r27, 0x0129	; 0x800129 <pwmValue+0x3>
 868:	8b 35       	cpi	r24, 0x5B	; 91
 86a:	91 05       	cpc	r25, r1
 86c:	a1 05       	cpc	r26, r1
 86e:	b1 05       	cpc	r27, r1
 870:	e8 f0       	brcs	.+58     	; 0x8ac <ArmServo+0xe0>
			setAngel[a] = setAngel[a] + 1;
 872:	8d 81       	ldd	r24, Y+5	; 0x05
 874:	9e 81       	ldd	r25, Y+6	; 0x06
 876:	88 0f       	add	r24, r24
 878:	99 1f       	adc	r25, r25
 87a:	88 0f       	add	r24, r24
 87c:	99 1f       	adc	r25, r25
 87e:	80 50       	subi	r24, 0x00	; 0
 880:	9f 4f       	sbci	r25, 0xFF	; 255
 882:	fc 01       	movw	r30, r24
 884:	80 81       	ld	r24, Z
 886:	91 81       	ldd	r25, Z+1	; 0x01
 888:	a2 81       	ldd	r26, Z+2	; 0x02
 88a:	b3 81       	ldd	r27, Z+3	; 0x03
 88c:	01 96       	adiw	r24, 0x01	; 1
 88e:	a1 1d       	adc	r26, r1
 890:	b1 1d       	adc	r27, r1
 892:	2d 81       	ldd	r18, Y+5	; 0x05
 894:	3e 81       	ldd	r19, Y+6	; 0x06
 896:	22 0f       	add	r18, r18
 898:	33 1f       	adc	r19, r19
 89a:	22 0f       	add	r18, r18
 89c:	33 1f       	adc	r19, r19
 89e:	20 50       	subi	r18, 0x00	; 0
 8a0:	3f 4f       	sbci	r19, 0xFF	; 255
 8a2:	f9 01       	movw	r30, r18
 8a4:	80 83       	st	Z, r24
 8a6:	91 83       	std	Z+1, r25	; 0x01
 8a8:	a2 83       	std	Z+2, r26	; 0x02
 8aa:	b3 83       	std	Z+3, r27	; 0x03
		}
		if(setAngel[a] > 180){
 8ac:	8d 81       	ldd	r24, Y+5	; 0x05
 8ae:	9e 81       	ldd	r25, Y+6	; 0x06
 8b0:	88 0f       	add	r24, r24
 8b2:	99 1f       	adc	r25, r25
 8b4:	88 0f       	add	r24, r24
 8b6:	99 1f       	adc	r25, r25
 8b8:	80 50       	subi	r24, 0x00	; 0
 8ba:	9f 4f       	sbci	r25, 0xFF	; 255
 8bc:	fc 01       	movw	r30, r24
 8be:	80 81       	ld	r24, Z
 8c0:	91 81       	ldd	r25, Z+1	; 0x01
 8c2:	a2 81       	ldd	r26, Z+2	; 0x02
 8c4:	b3 81       	ldd	r27, Z+3	; 0x03
 8c6:	85 3b       	cpi	r24, 0xB5	; 181
 8c8:	91 05       	cpc	r25, r1
 8ca:	a1 05       	cpc	r26, r1
 8cc:	b1 05       	cpc	r27, r1
 8ce:	9c f0       	brlt	.+38     	; 0x8f6 <ArmServo+0x12a>
			setAngel[a] = 120;
 8d0:	8d 81       	ldd	r24, Y+5	; 0x05
 8d2:	9e 81       	ldd	r25, Y+6	; 0x06
 8d4:	88 0f       	add	r24, r24
 8d6:	99 1f       	adc	r25, r25
 8d8:	88 0f       	add	r24, r24
 8da:	99 1f       	adc	r25, r25
 8dc:	9c 01       	movw	r18, r24
 8de:	20 50       	subi	r18, 0x00	; 0
 8e0:	3f 4f       	sbci	r19, 0xFF	; 255
 8e2:	88 e7       	ldi	r24, 0x78	; 120
 8e4:	90 e0       	ldi	r25, 0x00	; 0
 8e6:	a0 e0       	ldi	r26, 0x00	; 0
 8e8:	b0 e0       	ldi	r27, 0x00	; 0
 8ea:	f9 01       	movw	r30, r18
 8ec:	80 83       	st	Z, r24
 8ee:	91 83       	std	Z+1, r25	; 0x01
 8f0:	a2 83       	std	Z+2, r26	; 0x02
 8f2:	b3 83       	std	Z+3, r27	; 0x03
 8f4:	21 c0       	rjmp	.+66     	; 0x938 <ArmServo+0x16c>
		}
		else if(setAngel[a] < 0){
 8f6:	8d 81       	ldd	r24, Y+5	; 0x05
 8f8:	9e 81       	ldd	r25, Y+6	; 0x06
 8fa:	88 0f       	add	r24, r24
 8fc:	99 1f       	adc	r25, r25
 8fe:	88 0f       	add	r24, r24
 900:	99 1f       	adc	r25, r25
 902:	80 50       	subi	r24, 0x00	; 0
 904:	9f 4f       	sbci	r25, 0xFF	; 255
 906:	fc 01       	movw	r30, r24
 908:	80 81       	ld	r24, Z
 90a:	91 81       	ldd	r25, Z+1	; 0x01
 90c:	a2 81       	ldd	r26, Z+2	; 0x02
 90e:	b3 81       	ldd	r27, Z+3	; 0x03
 910:	bb 23       	and	r27, r27
 912:	94 f4       	brge	.+36     	; 0x938 <ArmServo+0x16c>
			setAngel[a] = 20;
 914:	8d 81       	ldd	r24, Y+5	; 0x05
 916:	9e 81       	ldd	r25, Y+6	; 0x06
 918:	88 0f       	add	r24, r24
 91a:	99 1f       	adc	r25, r25
 91c:	88 0f       	add	r24, r24
 91e:	99 1f       	adc	r25, r25
 920:	9c 01       	movw	r18, r24
 922:	20 50       	subi	r18, 0x00	; 0
 924:	3f 4f       	sbci	r19, 0xFF	; 255
 926:	84 e1       	ldi	r24, 0x14	; 20
 928:	90 e0       	ldi	r25, 0x00	; 0
 92a:	a0 e0       	ldi	r26, 0x00	; 0
 92c:	b0 e0       	ldi	r27, 0x00	; 0
 92e:	f9 01       	movw	r30, r18
 930:	80 83       	st	Z, r24
 932:	91 83       	std	Z+1, r25	; 0x01
 934:	a2 83       	std	Z+2, r26	; 0x02
 936:	b3 83       	std	Z+3, r27	; 0x03
		}
	}
	
	if(pwmValue[1] > 400000){
 938:	80 91 2a 01 	lds	r24, 0x012A	; 0x80012a <pwmValue+0x4>
 93c:	90 91 2b 01 	lds	r25, 0x012B	; 0x80012b <pwmValue+0x5>
 940:	a0 91 2c 01 	lds	r26, 0x012C	; 0x80012c <pwmValue+0x6>
 944:	b0 91 2d 01 	lds	r27, 0x012D	; 0x80012d <pwmValue+0x7>
 948:	81 38       	cpi	r24, 0x81	; 129
 94a:	9a 41       	sbci	r25, 0x1A	; 26
 94c:	a6 40       	sbci	r26, 0x06	; 6
 94e:	b1 05       	cpc	r27, r1
 950:	08 f0       	brcs	.+2      	; 0x954 <ArmServo+0x188>
 952:	a2 c0       	rjmp	.+324    	; 0xa98 <ArmServo+0x2cc>
		
	}
	else{
		if(pwmValue[1] < 70){
 954:	80 91 2a 01 	lds	r24, 0x012A	; 0x80012a <pwmValue+0x4>
 958:	90 91 2b 01 	lds	r25, 0x012B	; 0x80012b <pwmValue+0x5>
 95c:	a0 91 2c 01 	lds	r26, 0x012C	; 0x80012c <pwmValue+0x6>
 960:	b0 91 2d 01 	lds	r27, 0x012D	; 0x80012d <pwmValue+0x7>
 964:	86 34       	cpi	r24, 0x46	; 70
 966:	91 05       	cpc	r25, r1
 968:	a1 05       	cpc	r26, r1
 96a:	b1 05       	cpc	r27, r1
 96c:	10 f5       	brcc	.+68     	; 0x9b2 <ArmServo+0x1e6>
			setAngel[a+1] = setAngel[a+1] - 1;
 96e:	8d 81       	ldd	r24, Y+5	; 0x05
 970:	9e 81       	ldd	r25, Y+6	; 0x06
 972:	9c 01       	movw	r18, r24
 974:	2f 5f       	subi	r18, 0xFF	; 255
 976:	3f 4f       	sbci	r19, 0xFF	; 255
 978:	8d 81       	ldd	r24, Y+5	; 0x05
 97a:	9e 81       	ldd	r25, Y+6	; 0x06
 97c:	01 96       	adiw	r24, 0x01	; 1
 97e:	88 0f       	add	r24, r24
 980:	99 1f       	adc	r25, r25
 982:	88 0f       	add	r24, r24
 984:	99 1f       	adc	r25, r25
 986:	80 50       	subi	r24, 0x00	; 0
 988:	9f 4f       	sbci	r25, 0xFF	; 255
 98a:	fc 01       	movw	r30, r24
 98c:	80 81       	ld	r24, Z
 98e:	91 81       	ldd	r25, Z+1	; 0x01
 990:	a2 81       	ldd	r26, Z+2	; 0x02
 992:	b3 81       	ldd	r27, Z+3	; 0x03
 994:	01 97       	sbiw	r24, 0x01	; 1
 996:	a1 09       	sbc	r26, r1
 998:	b1 09       	sbc	r27, r1
 99a:	22 0f       	add	r18, r18
 99c:	33 1f       	adc	r19, r19
 99e:	22 0f       	add	r18, r18
 9a0:	33 1f       	adc	r19, r19
 9a2:	20 50       	subi	r18, 0x00	; 0
 9a4:	3f 4f       	sbci	r19, 0xFF	; 255
 9a6:	f9 01       	movw	r30, r18
 9a8:	80 83       	st	Z, r24
 9aa:	91 83       	std	Z+1, r25	; 0x01
 9ac:	a2 83       	std	Z+2, r26	; 0x02
 9ae:	b3 83       	std	Z+3, r27	; 0x03
 9b0:	2e c0       	rjmp	.+92     	; 0xa0e <ArmServo+0x242>
		}
		else if(pwmValue[1] > 90){
 9b2:	80 91 2a 01 	lds	r24, 0x012A	; 0x80012a <pwmValue+0x4>
 9b6:	90 91 2b 01 	lds	r25, 0x012B	; 0x80012b <pwmValue+0x5>
 9ba:	a0 91 2c 01 	lds	r26, 0x012C	; 0x80012c <pwmValue+0x6>
 9be:	b0 91 2d 01 	lds	r27, 0x012D	; 0x80012d <pwmValue+0x7>
 9c2:	8b 35       	cpi	r24, 0x5B	; 91
 9c4:	91 05       	cpc	r25, r1
 9c6:	a1 05       	cpc	r26, r1
 9c8:	b1 05       	cpc	r27, r1
 9ca:	08 f1       	brcs	.+66     	; 0xa0e <ArmServo+0x242>
			setAngel[a+1] = setAngel[a+1] + 1;
 9cc:	8d 81       	ldd	r24, Y+5	; 0x05
 9ce:	9e 81       	ldd	r25, Y+6	; 0x06
 9d0:	9c 01       	movw	r18, r24
 9d2:	2f 5f       	subi	r18, 0xFF	; 255
 9d4:	3f 4f       	sbci	r19, 0xFF	; 255
 9d6:	8d 81       	ldd	r24, Y+5	; 0x05
 9d8:	9e 81       	ldd	r25, Y+6	; 0x06
 9da:	01 96       	adiw	r24, 0x01	; 1
 9dc:	88 0f       	add	r24, r24
 9de:	99 1f       	adc	r25, r25
 9e0:	88 0f       	add	r24, r24
 9e2:	99 1f       	adc	r25, r25
 9e4:	80 50       	subi	r24, 0x00	; 0
 9e6:	9f 4f       	sbci	r25, 0xFF	; 255
 9e8:	fc 01       	movw	r30, r24
 9ea:	80 81       	ld	r24, Z
 9ec:	91 81       	ldd	r25, Z+1	; 0x01
 9ee:	a2 81       	ldd	r26, Z+2	; 0x02
 9f0:	b3 81       	ldd	r27, Z+3	; 0x03
 9f2:	01 96       	adiw	r24, 0x01	; 1
 9f4:	a1 1d       	adc	r26, r1
 9f6:	b1 1d       	adc	r27, r1
 9f8:	22 0f       	add	r18, r18
 9fa:	33 1f       	adc	r19, r19
 9fc:	22 0f       	add	r18, r18
 9fe:	33 1f       	adc	r19, r19
 a00:	20 50       	subi	r18, 0x00	; 0
 a02:	3f 4f       	sbci	r19, 0xFF	; 255
 a04:	f9 01       	movw	r30, r18
 a06:	80 83       	st	Z, r24
 a08:	91 83       	std	Z+1, r25	; 0x01
 a0a:	a2 83       	std	Z+2, r26	; 0x02
 a0c:	b3 83       	std	Z+3, r27	; 0x03
		}
		if(setAngel[a + 1] > 180){
 a0e:	8d 81       	ldd	r24, Y+5	; 0x05
 a10:	9e 81       	ldd	r25, Y+6	; 0x06
 a12:	01 96       	adiw	r24, 0x01	; 1
 a14:	88 0f       	add	r24, r24
 a16:	99 1f       	adc	r25, r25
 a18:	88 0f       	add	r24, r24
 a1a:	99 1f       	adc	r25, r25
 a1c:	80 50       	subi	r24, 0x00	; 0
 a1e:	9f 4f       	sbci	r25, 0xFF	; 255
 a20:	fc 01       	movw	r30, r24
 a22:	80 81       	ld	r24, Z
 a24:	91 81       	ldd	r25, Z+1	; 0x01
 a26:	a2 81       	ldd	r26, Z+2	; 0x02
 a28:	b3 81       	ldd	r27, Z+3	; 0x03
 a2a:	85 3b       	cpi	r24, 0xB5	; 181
 a2c:	91 05       	cpc	r25, r1
 a2e:	a1 05       	cpc	r26, r1
 a30:	b1 05       	cpc	r27, r1
 a32:	a4 f0       	brlt	.+40     	; 0xa5c <ArmServo+0x290>
			setAngel[a + 1] = 180;
 a34:	8d 81       	ldd	r24, Y+5	; 0x05
 a36:	9e 81       	ldd	r25, Y+6	; 0x06
 a38:	01 96       	adiw	r24, 0x01	; 1
 a3a:	88 0f       	add	r24, r24
 a3c:	99 1f       	adc	r25, r25
 a3e:	88 0f       	add	r24, r24
 a40:	99 1f       	adc	r25, r25
 a42:	9c 01       	movw	r18, r24
 a44:	20 50       	subi	r18, 0x00	; 0
 a46:	3f 4f       	sbci	r19, 0xFF	; 255
 a48:	84 eb       	ldi	r24, 0xB4	; 180
 a4a:	90 e0       	ldi	r25, 0x00	; 0
 a4c:	a0 e0       	ldi	r26, 0x00	; 0
 a4e:	b0 e0       	ldi	r27, 0x00	; 0
 a50:	f9 01       	movw	r30, r18
 a52:	80 83       	st	Z, r24
 a54:	91 83       	std	Z+1, r25	; 0x01
 a56:	a2 83       	std	Z+2, r26	; 0x02
 a58:	b3 83       	std	Z+3, r27	; 0x03
 a5a:	1e c0       	rjmp	.+60     	; 0xa98 <ArmServo+0x2cc>
		}
		else if(setAngel[a + 1] < 0){
 a5c:	8d 81       	ldd	r24, Y+5	; 0x05
 a5e:	9e 81       	ldd	r25, Y+6	; 0x06
 a60:	01 96       	adiw	r24, 0x01	; 1
 a62:	88 0f       	add	r24, r24
 a64:	99 1f       	adc	r25, r25
 a66:	88 0f       	add	r24, r24
 a68:	99 1f       	adc	r25, r25
 a6a:	80 50       	subi	r24, 0x00	; 0
 a6c:	9f 4f       	sbci	r25, 0xFF	; 255
 a6e:	fc 01       	movw	r30, r24
 a70:	80 81       	ld	r24, Z
 a72:	91 81       	ldd	r25, Z+1	; 0x01
 a74:	a2 81       	ldd	r26, Z+2	; 0x02
 a76:	b3 81       	ldd	r27, Z+3	; 0x03
 a78:	bb 23       	and	r27, r27
 a7a:	74 f4       	brge	.+28     	; 0xa98 <ArmServo+0x2cc>
			setAngel[a + 1] = 0;
 a7c:	8d 81       	ldd	r24, Y+5	; 0x05
 a7e:	9e 81       	ldd	r25, Y+6	; 0x06
 a80:	01 96       	adiw	r24, 0x01	; 1
 a82:	88 0f       	add	r24, r24
 a84:	99 1f       	adc	r25, r25
 a86:	88 0f       	add	r24, r24
 a88:	99 1f       	adc	r25, r25
 a8a:	80 50       	subi	r24, 0x00	; 0
 a8c:	9f 4f       	sbci	r25, 0xFF	; 255
 a8e:	fc 01       	movw	r30, r24
 a90:	10 82       	st	Z, r1
 a92:	11 82       	std	Z+1, r1	; 0x01
 a94:	12 82       	std	Z+2, r1	; 0x02
 a96:	13 82       	std	Z+3, r1	; 0x03
		}
	}
	unsigned long past = idx;
 a98:	80 91 12 01 	lds	r24, 0x0112	; 0x800112 <idx>
 a9c:	90 91 13 01 	lds	r25, 0x0113	; 0x800113 <idx+0x1>
 aa0:	a0 91 14 01 	lds	r26, 0x0114	; 0x800114 <idx+0x2>
 aa4:	b0 91 15 01 	lds	r27, 0x0115	; 0x800115 <idx+0x3>
 aa8:	89 83       	std	Y+1, r24	; 0x01
 aaa:	9a 83       	std	Y+2, r25	; 0x02
 aac:	ab 83       	std	Y+3, r26	; 0x03
 aae:	bc 83       	std	Y+4, r27	; 0x04
	while(idx - past < 500){
 ab0:	00 00       	nop
 ab2:	20 91 12 01 	lds	r18, 0x0112	; 0x800112 <idx>
 ab6:	30 91 13 01 	lds	r19, 0x0113	; 0x800113 <idx+0x1>
 aba:	40 91 14 01 	lds	r20, 0x0114	; 0x800114 <idx+0x2>
 abe:	50 91 15 01 	lds	r21, 0x0115	; 0x800115 <idx+0x3>
 ac2:	89 81       	ldd	r24, Y+1	; 0x01
 ac4:	9a 81       	ldd	r25, Y+2	; 0x02
 ac6:	ab 81       	ldd	r26, Y+3	; 0x03
 ac8:	bc 81       	ldd	r27, Y+4	; 0x04
 aca:	79 01       	movw	r14, r18
 acc:	8a 01       	movw	r16, r20
 ace:	e8 1a       	sub	r14, r24
 ad0:	f9 0a       	sbc	r15, r25
 ad2:	0a 0b       	sbc	r16, r26
 ad4:	1b 0b       	sbc	r17, r27
 ad6:	d8 01       	movw	r26, r16
 ad8:	c7 01       	movw	r24, r14
 ada:	84 3f       	cpi	r24, 0xF4	; 244
 adc:	91 40       	sbci	r25, 0x01	; 1
 ade:	a1 05       	cpc	r26, r1
 ae0:	b1 05       	cpc	r27, r1
 ae2:	38 f3       	brcs	.-50     	; 0xab2 <ArmServo+0x2e6>
		;
	}
}
 ae4:	00 00       	nop
 ae6:	26 96       	adiw	r28, 0x06	; 6
 ae8:	0f b6       	in	r0, 0x3f	; 63
 aea:	f8 94       	cli
 aec:	de bf       	out	0x3e, r29	; 62
 aee:	0f be       	out	0x3f, r0	; 63
 af0:	cd bf       	out	0x3d, r28	; 61
 af2:	df 91       	pop	r29
 af4:	cf 91       	pop	r28
 af6:	1f 91       	pop	r17
 af8:	0f 91       	pop	r16
 afa:	ff 90       	pop	r15
 afc:	ef 90       	pop	r14
 afe:	08 95       	ret

00000b00 <INT_Method>:

void INT_Method(int a){
 b00:	ef 92       	push	r14
 b02:	ff 92       	push	r15
 b04:	0f 93       	push	r16
 b06:	1f 93       	push	r17
 b08:	cf 93       	push	r28
 b0a:	df 93       	push	r29
 b0c:	00 d0       	rcall	.+0      	; 0xb0e <INT_Method+0xe>
 b0e:	cd b7       	in	r28, 0x3d	; 61
 b10:	de b7       	in	r29, 0x3e	; 62
 b12:	9a 83       	std	Y+2, r25	; 0x02
 b14:	89 83       	std	Y+1, r24	; 0x01
	if( (PIND & (1 << a) ) ){
 b16:	80 e3       	ldi	r24, 0x30	; 48
 b18:	90 e0       	ldi	r25, 0x00	; 0
 b1a:	fc 01       	movw	r30, r24
 b1c:	80 81       	ld	r24, Z
 b1e:	88 2f       	mov	r24, r24
 b20:	90 e0       	ldi	r25, 0x00	; 0
 b22:	09 80       	ldd	r0, Y+1	; 0x01
 b24:	02 c0       	rjmp	.+4      	; 0xb2a <INT_Method+0x2a>
 b26:	95 95       	asr	r25
 b28:	87 95       	ror	r24
 b2a:	0a 94       	dec	r0
 b2c:	e2 f7       	brpl	.-8      	; 0xb26 <INT_Method+0x26>
 b2e:	81 70       	andi	r24, 0x01	; 1
 b30:	99 27       	eor	r25, r25
 b32:	89 2b       	or	r24, r25
 b34:	b1 f0       	breq	.+44     	; 0xb62 <INT_Method+0x62>
		timer[a] = idx;
 b36:	80 91 12 01 	lds	r24, 0x0112	; 0x800112 <idx>
 b3a:	90 91 13 01 	lds	r25, 0x0113	; 0x800113 <idx+0x1>
 b3e:	a0 91 14 01 	lds	r26, 0x0114	; 0x800114 <idx+0x2>
 b42:	b0 91 15 01 	lds	r27, 0x0115	; 0x800115 <idx+0x3>
 b46:	29 81       	ldd	r18, Y+1	; 0x01
 b48:	3a 81       	ldd	r19, Y+2	; 0x02
 b4a:	22 0f       	add	r18, r18
 b4c:	33 1f       	adc	r19, r19
 b4e:	22 0f       	add	r18, r18
 b50:	33 1f       	adc	r19, r19
 b52:	2a 5e       	subi	r18, 0xEA	; 234
 b54:	3e 4f       	sbci	r19, 0xFE	; 254
 b56:	f9 01       	movw	r30, r18
 b58:	80 83       	st	Z, r24
 b5a:	91 83       	std	Z+1, r25	; 0x01
 b5c:	a2 83       	std	Z+2, r26	; 0x02
 b5e:	b3 83       	std	Z+3, r27	; 0x03
		PORTC = 0x00;
		if(timer[a] != 0){
			pwmValue[a] = idx - timer[a];
		}
	}
}
 b60:	3f c0       	rjmp	.+126    	; 0xbe0 <INT_Method+0xe0>
void INT_Method(int a){
	if( (PIND & (1 << a) ) ){
		timer[a] = idx;
	}
	else{
		PORTC = 0x00;
 b62:	85 e3       	ldi	r24, 0x35	; 53
 b64:	90 e0       	ldi	r25, 0x00	; 0
 b66:	fc 01       	movw	r30, r24
 b68:	10 82       	st	Z, r1
		if(timer[a] != 0){
 b6a:	89 81       	ldd	r24, Y+1	; 0x01
 b6c:	9a 81       	ldd	r25, Y+2	; 0x02
 b6e:	88 0f       	add	r24, r24
 b70:	99 1f       	adc	r25, r25
 b72:	88 0f       	add	r24, r24
 b74:	99 1f       	adc	r25, r25
 b76:	8a 5e       	subi	r24, 0xEA	; 234
 b78:	9e 4f       	sbci	r25, 0xFE	; 254
 b7a:	fc 01       	movw	r30, r24
 b7c:	80 81       	ld	r24, Z
 b7e:	91 81       	ldd	r25, Z+1	; 0x01
 b80:	a2 81       	ldd	r26, Z+2	; 0x02
 b82:	b3 81       	ldd	r27, Z+3	; 0x03
 b84:	89 2b       	or	r24, r25
 b86:	8a 2b       	or	r24, r26
 b88:	8b 2b       	or	r24, r27
 b8a:	51 f1       	breq	.+84     	; 0xbe0 <INT_Method+0xe0>
			pwmValue[a] = idx - timer[a];
 b8c:	20 91 12 01 	lds	r18, 0x0112	; 0x800112 <idx>
 b90:	30 91 13 01 	lds	r19, 0x0113	; 0x800113 <idx+0x1>
 b94:	40 91 14 01 	lds	r20, 0x0114	; 0x800114 <idx+0x2>
 b98:	50 91 15 01 	lds	r21, 0x0115	; 0x800115 <idx+0x3>
 b9c:	89 81       	ldd	r24, Y+1	; 0x01
 b9e:	9a 81       	ldd	r25, Y+2	; 0x02
 ba0:	88 0f       	add	r24, r24
 ba2:	99 1f       	adc	r25, r25
 ba4:	88 0f       	add	r24, r24
 ba6:	99 1f       	adc	r25, r25
 ba8:	8a 5e       	subi	r24, 0xEA	; 234
 baa:	9e 4f       	sbci	r25, 0xFE	; 254
 bac:	fc 01       	movw	r30, r24
 bae:	80 81       	ld	r24, Z
 bb0:	91 81       	ldd	r25, Z+1	; 0x01
 bb2:	a2 81       	ldd	r26, Z+2	; 0x02
 bb4:	b3 81       	ldd	r27, Z+3	; 0x03
 bb6:	79 01       	movw	r14, r18
 bb8:	8a 01       	movw	r16, r20
 bba:	e8 1a       	sub	r14, r24
 bbc:	f9 0a       	sbc	r15, r25
 bbe:	0a 0b       	sbc	r16, r26
 bc0:	1b 0b       	sbc	r17, r27
 bc2:	d8 01       	movw	r26, r16
 bc4:	c7 01       	movw	r24, r14
 bc6:	29 81       	ldd	r18, Y+1	; 0x01
 bc8:	3a 81       	ldd	r19, Y+2	; 0x02
 bca:	22 0f       	add	r18, r18
 bcc:	33 1f       	adc	r19, r19
 bce:	22 0f       	add	r18, r18
 bd0:	33 1f       	adc	r19, r19
 bd2:	2a 5d       	subi	r18, 0xDA	; 218
 bd4:	3e 4f       	sbci	r19, 0xFE	; 254
 bd6:	f9 01       	movw	r30, r18
 bd8:	80 83       	st	Z, r24
 bda:	91 83       	std	Z+1, r25	; 0x01
 bdc:	a2 83       	std	Z+2, r26	; 0x02
 bde:	b3 83       	std	Z+3, r27	; 0x03
		}
	}
}
 be0:	00 00       	nop
 be2:	0f 90       	pop	r0
 be4:	0f 90       	pop	r0
 be6:	df 91       	pop	r29
 be8:	cf 91       	pop	r28
 bea:	1f 91       	pop	r17
 bec:	0f 91       	pop	r16
 bee:	ff 90       	pop	r15
 bf0:	ef 90       	pop	r14
 bf2:	08 95       	ret

00000bf4 <mapping>:

long mapping(long x,long in_min,long in_max, long out_min, long out_max)
{
 bf4:	af 92       	push	r10
 bf6:	bf 92       	push	r11
 bf8:	cf 92       	push	r12
 bfa:	df 92       	push	r13
 bfc:	ef 92       	push	r14
 bfe:	ff 92       	push	r15
 c00:	0f 93       	push	r16
 c02:	1f 93       	push	r17
 c04:	cf 93       	push	r28
 c06:	df 93       	push	r29
 c08:	cd b7       	in	r28, 0x3d	; 61
 c0a:	de b7       	in	r29, 0x3e	; 62
 c0c:	64 97       	sbiw	r28, 0x14	; 20
 c0e:	0f b6       	in	r0, 0x3f	; 63
 c10:	f8 94       	cli
 c12:	de bf       	out	0x3e, r29	; 62
 c14:	0f be       	out	0x3f, r0	; 63
 c16:	cd bf       	out	0x3d, r28	; 61
 c18:	6d 83       	std	Y+5, r22	; 0x05
 c1a:	7e 83       	std	Y+6, r23	; 0x06
 c1c:	8f 83       	std	Y+7, r24	; 0x07
 c1e:	98 87       	std	Y+8, r25	; 0x08
 c20:	29 87       	std	Y+9, r18	; 0x09
 c22:	3a 87       	std	Y+10, r19	; 0x0a
 c24:	4b 87       	std	Y+11, r20	; 0x0b
 c26:	5c 87       	std	Y+12, r21	; 0x0c
 c28:	ed 86       	std	Y+13, r14	; 0x0d
 c2a:	fe 86       	std	Y+14, r15	; 0x0e
 c2c:	0f 87       	std	Y+15, r16	; 0x0f
 c2e:	18 8b       	std	Y+16, r17	; 0x10
 c30:	a9 8a       	std	Y+17, r10	; 0x11
 c32:	ba 8a       	std	Y+18, r11	; 0x12
 c34:	cb 8a       	std	Y+19, r12	; 0x13
 c36:	dc 8a       	std	Y+20, r13	; 0x14
	if(x > in_max){
 c38:	2d 81       	ldd	r18, Y+5	; 0x05
 c3a:	3e 81       	ldd	r19, Y+6	; 0x06
 c3c:	4f 81       	ldd	r20, Y+7	; 0x07
 c3e:	58 85       	ldd	r21, Y+8	; 0x08
 c40:	8d 85       	ldd	r24, Y+13	; 0x0d
 c42:	9e 85       	ldd	r25, Y+14	; 0x0e
 c44:	af 85       	ldd	r26, Y+15	; 0x0f
 c46:	b8 89       	ldd	r27, Y+16	; 0x10
 c48:	82 17       	cp	r24, r18
 c4a:	93 07       	cpc	r25, r19
 c4c:	a4 07       	cpc	r26, r20
 c4e:	b5 07       	cpc	r27, r21
 c50:	4c f4       	brge	.+18     	; 0xc64 <mapping+0x70>
		x = in_max;
 c52:	8d 85       	ldd	r24, Y+13	; 0x0d
 c54:	9e 85       	ldd	r25, Y+14	; 0x0e
 c56:	af 85       	ldd	r26, Y+15	; 0x0f
 c58:	b8 89       	ldd	r27, Y+16	; 0x10
 c5a:	8d 83       	std	Y+5, r24	; 0x05
 c5c:	9e 83       	std	Y+6, r25	; 0x06
 c5e:	af 83       	std	Y+7, r26	; 0x07
 c60:	b8 87       	std	Y+8, r27	; 0x08
 c62:	15 c0       	rjmp	.+42     	; 0xc8e <mapping+0x9a>
	}
	else if(x < in_min){
 c64:	2d 81       	ldd	r18, Y+5	; 0x05
 c66:	3e 81       	ldd	r19, Y+6	; 0x06
 c68:	4f 81       	ldd	r20, Y+7	; 0x07
 c6a:	58 85       	ldd	r21, Y+8	; 0x08
 c6c:	89 85       	ldd	r24, Y+9	; 0x09
 c6e:	9a 85       	ldd	r25, Y+10	; 0x0a
 c70:	ab 85       	ldd	r26, Y+11	; 0x0b
 c72:	bc 85       	ldd	r27, Y+12	; 0x0c
 c74:	28 17       	cp	r18, r24
 c76:	39 07       	cpc	r19, r25
 c78:	4a 07       	cpc	r20, r26
 c7a:	5b 07       	cpc	r21, r27
 c7c:	44 f4       	brge	.+16     	; 0xc8e <mapping+0x9a>
		x = in_min;
 c7e:	89 85       	ldd	r24, Y+9	; 0x09
 c80:	9a 85       	ldd	r25, Y+10	; 0x0a
 c82:	ab 85       	ldd	r26, Y+11	; 0x0b
 c84:	bc 85       	ldd	r27, Y+12	; 0x0c
 c86:	8d 83       	std	Y+5, r24	; 0x05
 c88:	9e 83       	std	Y+6, r25	; 0x06
 c8a:	af 83       	std	Y+7, r26	; 0x07
 c8c:	b8 87       	std	Y+8, r27	; 0x08
	}
	long result = (x - in_min) * (out_max - out_min) / (in_max - in_min) + out_min;
 c8e:	2d 81       	ldd	r18, Y+5	; 0x05
 c90:	3e 81       	ldd	r19, Y+6	; 0x06
 c92:	4f 81       	ldd	r20, Y+7	; 0x07
 c94:	58 85       	ldd	r21, Y+8	; 0x08
 c96:	89 85       	ldd	r24, Y+9	; 0x09
 c98:	9a 85       	ldd	r25, Y+10	; 0x0a
 c9a:	ab 85       	ldd	r26, Y+11	; 0x0b
 c9c:	bc 85       	ldd	r27, Y+12	; 0x0c
 c9e:	79 01       	movw	r14, r18
 ca0:	8a 01       	movw	r16, r20
 ca2:	e8 1a       	sub	r14, r24
 ca4:	f9 0a       	sbc	r15, r25
 ca6:	0a 0b       	sbc	r16, r26
 ca8:	1b 0b       	sbc	r17, r27
 caa:	29 a1       	ldd	r18, Y+33	; 0x21
 cac:	3a a1       	ldd	r19, Y+34	; 0x22
 cae:	4b a1       	ldd	r20, Y+35	; 0x23
 cb0:	5c a1       	ldd	r21, Y+36	; 0x24
 cb2:	89 89       	ldd	r24, Y+17	; 0x11
 cb4:	9a 89       	ldd	r25, Y+18	; 0x12
 cb6:	ab 89       	ldd	r26, Y+19	; 0x13
 cb8:	bc 89       	ldd	r27, Y+20	; 0x14
 cba:	59 01       	movw	r10, r18
 cbc:	6a 01       	movw	r12, r20
 cbe:	a8 1a       	sub	r10, r24
 cc0:	b9 0a       	sbc	r11, r25
 cc2:	ca 0a       	sbc	r12, r26
 cc4:	db 0a       	sbc	r13, r27
 cc6:	d6 01       	movw	r26, r12
 cc8:	c5 01       	movw	r24, r10
 cca:	a8 01       	movw	r20, r16
 ccc:	97 01       	movw	r18, r14
 cce:	bc 01       	movw	r22, r24
 cd0:	cd 01       	movw	r24, r26
 cd2:	38 d0       	rcall	.+112    	; 0xd44 <__mulsi3>
 cd4:	7b 01       	movw	r14, r22
 cd6:	8c 01       	movw	r16, r24
 cd8:	2d 85       	ldd	r18, Y+13	; 0x0d
 cda:	3e 85       	ldd	r19, Y+14	; 0x0e
 cdc:	4f 85       	ldd	r20, Y+15	; 0x0f
 cde:	58 89       	ldd	r21, Y+16	; 0x10
 ce0:	89 85       	ldd	r24, Y+9	; 0x09
 ce2:	9a 85       	ldd	r25, Y+10	; 0x0a
 ce4:	ab 85       	ldd	r26, Y+11	; 0x0b
 ce6:	bc 85       	ldd	r27, Y+12	; 0x0c
 ce8:	28 1b       	sub	r18, r24
 cea:	39 0b       	sbc	r19, r25
 cec:	4a 0b       	sbc	r20, r26
 cee:	5b 0b       	sbc	r21, r27
 cf0:	c8 01       	movw	r24, r16
 cf2:	b7 01       	movw	r22, r14
 cf4:	36 d0       	rcall	.+108    	; 0xd62 <__divmodsi4>
 cf6:	da 01       	movw	r26, r20
 cf8:	c9 01       	movw	r24, r18
 cfa:	9c 01       	movw	r18, r24
 cfc:	ad 01       	movw	r20, r26
 cfe:	89 89       	ldd	r24, Y+17	; 0x11
 d00:	9a 89       	ldd	r25, Y+18	; 0x12
 d02:	ab 89       	ldd	r26, Y+19	; 0x13
 d04:	bc 89       	ldd	r27, Y+20	; 0x14
 d06:	82 0f       	add	r24, r18
 d08:	93 1f       	adc	r25, r19
 d0a:	a4 1f       	adc	r26, r20
 d0c:	b5 1f       	adc	r27, r21
 d0e:	89 83       	std	Y+1, r24	; 0x01
 d10:	9a 83       	std	Y+2, r25	; 0x02
 d12:	ab 83       	std	Y+3, r26	; 0x03
 d14:	bc 83       	std	Y+4, r27	; 0x04
	return result;
 d16:	89 81       	ldd	r24, Y+1	; 0x01
 d18:	9a 81       	ldd	r25, Y+2	; 0x02
 d1a:	ab 81       	ldd	r26, Y+3	; 0x03
 d1c:	bc 81       	ldd	r27, Y+4	; 0x04
 d1e:	bc 01       	movw	r22, r24
 d20:	cd 01       	movw	r24, r26
 d22:	64 96       	adiw	r28, 0x14	; 20
 d24:	0f b6       	in	r0, 0x3f	; 63
 d26:	f8 94       	cli
 d28:	de bf       	out	0x3e, r29	; 62
 d2a:	0f be       	out	0x3f, r0	; 63
 d2c:	cd bf       	out	0x3d, r28	; 61
 d2e:	df 91       	pop	r29
 d30:	cf 91       	pop	r28
 d32:	1f 91       	pop	r17
 d34:	0f 91       	pop	r16
 d36:	ff 90       	pop	r15
 d38:	ef 90       	pop	r14
 d3a:	df 90       	pop	r13
 d3c:	cf 90       	pop	r12
 d3e:	bf 90       	pop	r11
 d40:	af 90       	pop	r10
 d42:	08 95       	ret

00000d44 <__mulsi3>:
 d44:	db 01       	movw	r26, r22
 d46:	8f 93       	push	r24
 d48:	9f 93       	push	r25
 d4a:	27 d0       	rcall	.+78     	; 0xd9a <__muluhisi3>
 d4c:	bf 91       	pop	r27
 d4e:	af 91       	pop	r26
 d50:	a2 9f       	mul	r26, r18
 d52:	80 0d       	add	r24, r0
 d54:	91 1d       	adc	r25, r1
 d56:	a3 9f       	mul	r26, r19
 d58:	90 0d       	add	r25, r0
 d5a:	b2 9f       	mul	r27, r18
 d5c:	90 0d       	add	r25, r0
 d5e:	11 24       	eor	r1, r1
 d60:	08 95       	ret

00000d62 <__divmodsi4>:
 d62:	05 2e       	mov	r0, r21
 d64:	97 fb       	bst	r25, 7
 d66:	16 f4       	brtc	.+4      	; 0xd6c <__divmodsi4+0xa>
 d68:	00 94       	com	r0
 d6a:	0f d0       	rcall	.+30     	; 0xd8a <__negsi2>
 d6c:	57 fd       	sbrc	r21, 7
 d6e:	05 d0       	rcall	.+10     	; 0xd7a <__divmodsi4_neg2>
 d70:	1e d0       	rcall	.+60     	; 0xdae <__udivmodsi4>
 d72:	07 fc       	sbrc	r0, 7
 d74:	02 d0       	rcall	.+4      	; 0xd7a <__divmodsi4_neg2>
 d76:	46 f4       	brtc	.+16     	; 0xd88 <__divmodsi4_exit>
 d78:	08 c0       	rjmp	.+16     	; 0xd8a <__negsi2>

00000d7a <__divmodsi4_neg2>:
 d7a:	50 95       	com	r21
 d7c:	40 95       	com	r20
 d7e:	30 95       	com	r19
 d80:	21 95       	neg	r18
 d82:	3f 4f       	sbci	r19, 0xFF	; 255
 d84:	4f 4f       	sbci	r20, 0xFF	; 255
 d86:	5f 4f       	sbci	r21, 0xFF	; 255

00000d88 <__divmodsi4_exit>:
 d88:	08 95       	ret

00000d8a <__negsi2>:
 d8a:	90 95       	com	r25
 d8c:	80 95       	com	r24
 d8e:	70 95       	com	r23
 d90:	61 95       	neg	r22
 d92:	7f 4f       	sbci	r23, 0xFF	; 255
 d94:	8f 4f       	sbci	r24, 0xFF	; 255
 d96:	9f 4f       	sbci	r25, 0xFF	; 255
 d98:	08 95       	ret

00000d9a <__muluhisi3>:
 d9a:	2b d0       	rcall	.+86     	; 0xdf2 <__umulhisi3>
 d9c:	a5 9f       	mul	r26, r21
 d9e:	90 0d       	add	r25, r0
 da0:	b4 9f       	mul	r27, r20
 da2:	90 0d       	add	r25, r0
 da4:	a4 9f       	mul	r26, r20
 da6:	80 0d       	add	r24, r0
 da8:	91 1d       	adc	r25, r1
 daa:	11 24       	eor	r1, r1
 dac:	08 95       	ret

00000dae <__udivmodsi4>:
 dae:	a1 e2       	ldi	r26, 0x21	; 33
 db0:	1a 2e       	mov	r1, r26
 db2:	aa 1b       	sub	r26, r26
 db4:	bb 1b       	sub	r27, r27
 db6:	fd 01       	movw	r30, r26
 db8:	0d c0       	rjmp	.+26     	; 0xdd4 <__udivmodsi4_ep>

00000dba <__udivmodsi4_loop>:
 dba:	aa 1f       	adc	r26, r26
 dbc:	bb 1f       	adc	r27, r27
 dbe:	ee 1f       	adc	r30, r30
 dc0:	ff 1f       	adc	r31, r31
 dc2:	a2 17       	cp	r26, r18
 dc4:	b3 07       	cpc	r27, r19
 dc6:	e4 07       	cpc	r30, r20
 dc8:	f5 07       	cpc	r31, r21
 dca:	20 f0       	brcs	.+8      	; 0xdd4 <__udivmodsi4_ep>
 dcc:	a2 1b       	sub	r26, r18
 dce:	b3 0b       	sbc	r27, r19
 dd0:	e4 0b       	sbc	r30, r20
 dd2:	f5 0b       	sbc	r31, r21

00000dd4 <__udivmodsi4_ep>:
 dd4:	66 1f       	adc	r22, r22
 dd6:	77 1f       	adc	r23, r23
 dd8:	88 1f       	adc	r24, r24
 dda:	99 1f       	adc	r25, r25
 ddc:	1a 94       	dec	r1
 dde:	69 f7       	brne	.-38     	; 0xdba <__udivmodsi4_loop>
 de0:	60 95       	com	r22
 de2:	70 95       	com	r23
 de4:	80 95       	com	r24
 de6:	90 95       	com	r25
 de8:	9b 01       	movw	r18, r22
 dea:	ac 01       	movw	r20, r24
 dec:	bd 01       	movw	r22, r26
 dee:	cf 01       	movw	r24, r30
 df0:	08 95       	ret

00000df2 <__umulhisi3>:
 df2:	a2 9f       	mul	r26, r18
 df4:	b0 01       	movw	r22, r0
 df6:	b3 9f       	mul	r27, r19
 df8:	c0 01       	movw	r24, r0
 dfa:	a3 9f       	mul	r26, r19
 dfc:	70 0d       	add	r23, r0
 dfe:	81 1d       	adc	r24, r1
 e00:	11 24       	eor	r1, r1
 e02:	91 1d       	adc	r25, r1
 e04:	b2 9f       	mul	r27, r18
 e06:	70 0d       	add	r23, r0
 e08:	81 1d       	adc	r24, r1
 e0a:	11 24       	eor	r1, r1
 e0c:	91 1d       	adc	r25, r1
 e0e:	08 95       	ret

00000e10 <_exit>:
 e10:	f8 94       	cli

00000e12 <__stop_program>:
 e12:	ff cf       	rjmp	.-2      	; 0xe12 <__stop_program>
